(lp0
ccopy_reg
_reconstructor
p1
(ccore.models
OsmWay
p2
c__builtin__
object
p3
Ntp4
Rp5
(dp6
S'nodes'
p7
(lp8
L739097268L
aL739097559L
aL739101922L
aL739101923L
aL26098153L
aL739101924L
aL739101925L
aL250755885L
aL26098155L
aL26098157L
aL4075955311L
aL271146941L
aL4075955310L
aL26098158L
aL26098159L
asS'raw_indices'
p9
(lp10
I17
aI17
asS'id'
p11
L317622794L
sS'tags'
p12
(lp13
VNHS
p14
aVyes
p15
aVhgv
p16
aVno
p17
aVref
p18
aVUS 41
p19
aVname
p20
aVNorth Lake Shore Drive
p21
aVlanes
p22
aV4
p23
aVoneway
p24
aVyes
p25
aVhighway
p26
aVtrunk
p27
asbag1
(g2
g3
Ntp28
Rp29
(dp30
g7
(lp31
L739097268L
aL739097559L
aL739101922L
aL739101923L
aL26098153L
aL739101924L
aL739101925L
aL250755885L
aL26098155L
aL26098157L
aL4075955311L
aL271146941L
aL4075955310L
aL26098158L
aL26098159L
asg9
(lp32
I17
aI17
asg11
L317622794L
sg12
(lp33
VNHS
p34
aVyes
p35
aVhgv
p36
aVno
p37
aVref
p38
aVUS 41
p39
aVname
p40
aVNorth Lake Shore Drive
p41
aVlanes
p42
aV4
p43
aVoneway
p44
aVyes
p45
aVhighway
p46
aVtrunk
p47
asbag1
(g2
g3
Ntp48
Rp49
(dp50
g7
(lp51
L739097268L
aL739097559L
aL739101922L
aL739101923L
aL26098153L
aL739101924L
aL739101925L
aL250755885L
aL26098155L
aL26098157L
aL4075955311L
aL271146941L
aL4075955310L
aL26098158L
aL26098159L
asg9
(lp52
I17
aI17
asg11
L317622794L
sg12
(lp53
VNHS
p54
aVyes
p55
aVhgv
p56
aVno
p57
aVref
p58
aVUS 41
p59
aVname
p60
aVNorth Lake Shore Drive
p61
aVlanes
p62
aV4
p63
aVoneway
p64
aVyes
p65
aVhighway
p66
aVtrunk
p67
asbag1
(g2
g3
Ntp68
Rp69
(dp70
g7
(lp71
L739097268L
aL739097559L
aL739101922L
aL739101923L
aL26098153L
aL739101924L
aL739101925L
aL250755885L
aL26098155L
aL26098157L
aL4075955311L
aL271146941L
aL4075955310L
aL26098158L
aL26098159L
asg9
(lp72
I17
aI17
asg11
L317622794L
sg12
(lp73
VNHS
p74
aVyes
p75
aVhgv
p76
aVno
p77
aVref
p78
aVUS 41
p79
aVname
p80
aVNorth Lake Shore Drive
p81
aVlanes
p82
aV4
p83
aVoneway
p84
aVyes
p85
aVhighway
p86
aVtrunk
p87
asbag1
(g2
g3
Ntp88
Rp89
(dp90
g7
(lp91
L26098159L
aL258487920L
asg9
(lp92
I17
aI17
asg11
L23852446L
sg12
(lp93
VNHS
p94
aVyes
p95
aVhgv
p96
aVno
p97
aVref
p98
aVUS 41
p99
aVname
p100
aVNorth Lake Shore Drive
p101
aVlanes
p102
aV4
p103
aVlayer
p104
aV2
p105
aVbridge
p106
aVyes
p107
aVoneway
p108
aVyes
p109
aVhighway
p110
aVtrunk
p111
asbag1
(g2
g3
Ntp112
Rp113
(dp114
g7
(lp115
L258487920L
aL250755898L
aL26098161L
aL258487910L
aL26098162L
aL26098164L
aL26098165L
aL26098166L
asg9
(lp116
I17
aI17
asg11
L23852447L
sg12
(lp117
VNHS
p118
aVyes
p119
aVhgv
p120
aVno
p121
aVlit
p122
aVyes
p123
aVref
p124
aVUS 41
p125
aVname
p126
aVNorth Lake Shore Drive
p127
aVlanes
p128
aV4
p129
aVoneway
p130
aVyes
p131
aVhighway
p132
aVtrunk
p133
asbag1
(g2
g3
Ntp134
Rp135
(dp136
g7
(lp137
L258487920L
aL250755898L
aL26098161L
aL258487910L
aL26098162L
aL26098164L
aL26098165L
aL26098166L
asg9
(lp138
I17
aI17
asg11
L23852447L
sg12
(lp139
VNHS
p140
aVyes
p141
aVhgv
p142
aVno
p143
aVlit
p144
aVyes
p145
aVref
p146
aVUS 41
p147
aVname
p148
aVNorth Lake Shore Drive
p149
aVlanes
p150
aV4
p151
aVoneway
p152
aVyes
p153
aVhighway
p154
aVtrunk
p155
asbag1
(g2
g3
Ntp156
Rp157
(dp158
g7
(lp159
L258487920L
aL250755898L
aL26098161L
aL258487910L
aL26098162L
aL26098164L
aL26098165L
aL26098166L
asg9
(lp160
I17
aI17
asg11
L23852447L
sg12
(lp161
VNHS
p162
aVyes
p163
aVhgv
p164
aVno
p165
aVlit
p166
aVyes
p167
aVref
p168
aVUS 41
p169
aVname
p170
aVNorth Lake Shore Drive
p171
aVlanes
p172
aV4
p173
aVoneway
p174
aVyes
p175
aVhighway
p176
aVtrunk
p177
asbag1
(g2
g3
Ntp178
Rp179
(dp180
g7
(lp181
L258487920L
aL250755898L
aL26098161L
aL258487910L
aL26098162L
aL26098164L
aL26098165L
aL26098166L
asg9
(lp182
I17
aI17
asg11
L23852447L
sg12
(lp183
VNHS
p184
aVyes
p185
aVhgv
p186
aVno
p187
aVlit
p188
aVyes
p189
aVref
p190
aVUS 41
p191
aVname
p192
aVNorth Lake Shore Drive
p193
aVlanes
p194
aV4
p195
aVoneway
p196
aVyes
p197
aVhighway
p198
aVtrunk
p199
asbag1
(g2
g3
Ntp200
Rp201
(dp202
g7
(lp203
L26098166L
aL258487660L
asg9
(lp204
I17
aI17
asg11
L373857676L
sg12
(lp205
VNHS
p206
aVyes
p207
aVhgv
p208
aVno
p209
aVlit
p210
aVyes
p211
aVref
p212
aVUS 41
p213
aVname
p214
aVNorth Lake Shore Drive
p215
aVlanes
p216
aV4
p217
aVoneway
p218
aVyes
p219
aVhighway
p220
aVtrunk
p221
asbag1
(g2
g3
Ntp222
Rp223
(dp224
g7
(lp225
L258487661L
aL258487700L
aL258487701L
aL258487702L
aL258487384L
aL258487385L
aL26794400L
aL26794401L
aL258487313L
asg9
(lp226
I17
aI17
asg11
L4388611L
sg12
(lp227
VNHS
p228
aVyes
p229
aVhgv
p230
aVno
p231
aVlit
p232
aVyes
p233
aVref
p234
aVUS 41
p235
aVname
p236
aVNorth Lake Shore Drive
p237
aVlanes
p238
aV4
p239
aVoneway
p240
aVyes
p241
aVhighway
p242
aVtrunk
p243
aVmaxspeed
p244
aV40 mph
p245
asbag1
(g2
g3
Ntp246
Rp247
(dp248
g7
(lp249
L258487661L
aL258487700L
aL258487701L
aL258487702L
aL258487384L
aL258487385L
aL26794400L
aL26794401L
aL258487313L
asg9
(lp250
I17
aI17
asg11
L4388611L
sg12
(lp251
VNHS
p252
aVyes
p253
aVhgv
p254
aVno
p255
aVlit
p256
aVyes
p257
aVref
p258
aVUS 41
p259
aVname
p260
aVNorth Lake Shore Drive
p261
aVlanes
p262
aV4
p263
aVoneway
p264
aVyes
p265
aVhighway
p266
aVtrunk
p267
aVmaxspeed
p268
aV40 mph
p269
asbag1
(g2
g3
Ntp270
Rp271
(dp272
g7
(lp273
L26794402L
aL1439614216L
aL26794403L
aL26794404L
aL1439614217L
aL26794405L
aL26794407L
aL1439614213L
aL26794416L
aL1052620524L
aL26794418L
aL26794420L
aL1439614207L
aL26794422L
aL1052620526L
aL260080588L
asg9
(lp274
I17
aI17
asg11
L23852376L
sg12
(lp275
VNHS
p276
aVyes
p277
aVhgv
p278
aVno
p279
aVref
p280
aVUS 41
p281
aVname
p282
aVNorth Lake Shore Drive
p283
aVlanes
p284
aV4
p285
aVoneway
p286
aVyes
p287
aVhighway
p288
aVtrunk
p289
aVmaxspeed
p290
aV40 mph
p291
asbag1
(g2
g3
Ntp292
Rp293
(dp294
g7
(lp295
L26794402L
aL1439614216L
aL26794403L
aL26794404L
aL1439614217L
aL26794405L
aL26794407L
aL1439614213L
aL26794416L
aL1052620524L
aL26794418L
aL26794420L
aL1439614207L
aL26794422L
aL1052620526L
aL260080588L
asg9
(lp296
I17
aI17
asg11
L23852376L
sg12
(lp297
VNHS
p298
aVyes
p299
aVhgv
p300
aVno
p301
aVref
p302
aVUS 41
p303
aVname
p304
aVNorth Lake Shore Drive
p305
aVlanes
p306
aV4
p307
aVoneway
p308
aVyes
p309
aVhighway
p310
aVtrunk
p311
aVmaxspeed
p312
aV40 mph
p313
asbag1
(g2
g3
Ntp314
Rp315
(dp316
g7
(lp317
L26794402L
aL1439614216L
aL26794403L
aL26794404L
aL1439614217L
aL26794405L
aL26794407L
aL1439614213L
aL26794416L
aL1052620524L
aL26794418L
aL26794420L
aL1439614207L
aL26794422L
aL1052620526L
aL260080588L
asg9
(lp318
I17
aI17
asg11
L23852376L
sg12
(lp319
VNHS
p320
aVyes
p321
aVhgv
p322
aVno
p323
aVref
p324
aVUS 41
p325
aVname
p326
aVNorth Lake Shore Drive
p327
aVlanes
p328
aV4
p329
aVoneway
p330
aVyes
p331
aVhighway
p332
aVtrunk
p333
aVmaxspeed
p334
aV40 mph
p335
asbag1
(g2
g3
Ntp336
Rp337
(dp338
g7
(lp339
L26794402L
aL1439614216L
aL26794403L
aL26794404L
aL1439614217L
aL26794405L
aL26794407L
aL1439614213L
aL26794416L
aL1052620524L
aL26794418L
aL26794420L
aL1439614207L
aL26794422L
aL1052620526L
aL260080588L
asg9
(lp340
I17
aI17
asg11
L23852376L
sg12
(lp341
VNHS
p342
aVyes
p343
aVhgv
p344
aVno
p345
aVref
p346
aVUS 41
p347
aVname
p348
aVNorth Lake Shore Drive
p349
aVlanes
p350
aV4
p351
aVoneway
p352
aVyes
p353
aVhighway
p354
aVtrunk
p355
aVmaxspeed
p356
aV40 mph
p357
asbag1
(g2
g3
Ntp358
Rp359
(dp360
g7
(lp361
L26794402L
aL1439614216L
aL26794403L
aL26794404L
aL1439614217L
aL26794405L
aL26794407L
aL1439614213L
aL26794416L
aL1052620524L
aL26794418L
aL26794420L
aL1439614207L
aL26794422L
aL1052620526L
aL260080588L
asg9
(lp362
I17
aI17
asg11
L23852376L
sg12
(lp363
VNHS
p364
aVyes
p365
aVhgv
p366
aVno
p367
aVref
p368
aVUS 41
p369
aVname
p370
aVNorth Lake Shore Drive
p371
aVlanes
p372
aV4
p373
aVoneway
p374
aVyes
p375
aVhighway
p376
aVtrunk
p377
aVmaxspeed
p378
aV40 mph
p379
asbag1
(g2
g3
Ntp380
Rp381
(dp382
g7
(lp383
L26794402L
aL1439614216L
aL26794403L
aL26794404L
aL1439614217L
aL26794405L
aL26794407L
aL1439614213L
aL26794416L
aL1052620524L
aL26794418L
aL26794420L
aL1439614207L
aL26794422L
aL1052620526L
aL260080588L
asg9
(lp384
I17
aI17
asg11
L23852376L
sg12
(lp385
VNHS
p386
aVyes
p387
aVhgv
p388
aVno
p389
aVref
p390
aVUS 41
p391
aVname
p392
aVNorth Lake Shore Drive
p393
aVlanes
p394
aV4
p395
aVoneway
p396
aVyes
p397
aVhighway
p398
aVtrunk
p399
aVmaxspeed
p400
aV40 mph
p401
asbag1
(g2
g3
Ntp402
Rp403
(dp404
g7
(lp405
L26794402L
aL1439614216L
aL26794403L
aL26794404L
aL1439614217L
aL26794405L
aL26794407L
aL1439614213L
aL26794416L
aL1052620524L
aL26794418L
aL26794420L
aL1439614207L
aL26794422L
aL1052620526L
aL260080588L
asg9
(lp406
I17
aI17
asg11
L23852376L
sg12
(lp407
VNHS
p408
aVyes
p409
aVhgv
p410
aVno
p411
aVref
p412
aVUS 41
p413
aVname
p414
aVNorth Lake Shore Drive
p415
aVlanes
p416
aV4
p417
aVoneway
p418
aVyes
p419
aVhighway
p420
aVtrunk
p421
aVmaxspeed
p422
aV40 mph
p423
asbag1
(g2
g3
Ntp424
Rp425
(dp426
g7
(lp427
L26794402L
aL1439614216L
aL26794403L
aL26794404L
aL1439614217L
aL26794405L
aL26794407L
aL1439614213L
aL26794416L
aL1052620524L
aL26794418L
aL26794420L
aL1439614207L
aL26794422L
aL1052620526L
aL260080588L
asg9
(lp428
I17
aI17
asg11
L23852376L
sg12
(lp429
VNHS
p430
aVyes
p431
aVhgv
p432
aVno
p433
aVref
p434
aVUS 41
p435
aVname
p436
aVNorth Lake Shore Drive
p437
aVlanes
p438
aV4
p439
aVoneway
p440
aVyes
p441
aVhighway
p442
aVtrunk
p443
aVmaxspeed
p444
aV40 mph
p445
asbag1
(g2
g3
Ntp446
Rp447
(dp448
g7
(lp449
L26794402L
aL1439614216L
aL26794403L
aL26794404L
aL1439614217L
aL26794405L
aL26794407L
aL1439614213L
aL26794416L
aL1052620524L
aL26794418L
aL26794420L
aL1439614207L
aL26794422L
aL1052620526L
aL260080588L
asg9
(lp450
I17
aI17
asg11
L23852376L
sg12
(lp451
VNHS
p452
aVyes
p453
aVhgv
p454
aVno
p455
aVref
p456
aVUS 41
p457
aVname
p458
aVNorth Lake Shore Drive
p459
aVlanes
p460
aV4
p461
aVoneway
p462
aVyes
p463
aVhighway
p464
aVtrunk
p465
aVmaxspeed
p466
aV40 mph
p467
asbag1
(g2
g3
Ntp468
Rp469
(dp470
g7
(lp471
L26794425L
aL26794426L
aL26794428L
aL26794429L
asg9
(lp472
I17
aI17
asg11
L23987645L
sg12
(lp473
VNHS
p474
aVyes
p475
aVhgv
p476
aVno
p477
aVref
p478
aVUS 41
p479
aVname
p480
aVNorth Lake Shore Drive
p481
aVlanes
p482
aV4
p483
aVoneway
p484
aVyes
p485
aVhighway
p486
aVtrunk
p487
asbag1
(g2
g3
Ntp488
Rp489
(dp490
g7
(lp491
L26794425L
aL26794426L
aL26794428L
aL26794429L
asg9
(lp492
I17
aI17
asg11
L23987645L
sg12
(lp493
VNHS
p494
aVyes
p495
aVhgv
p496
aVno
p497
aVref
p498
aVUS 41
p499
aVname
p500
aVNorth Lake Shore Drive
p501
aVlanes
p502
aV4
p503
aVoneway
p504
aVyes
p505
aVhighway
p506
aVtrunk
p507
asbag1
(g2
g3
Ntp508
Rp509
(dp510
g7
(lp511
L26794425L
aL26794426L
aL26794428L
aL26794429L
asg9
(lp512
I17
aI17
asg11
L23987645L
sg12
(lp513
VNHS
p514
aVyes
p515
aVhgv
p516
aVno
p517
aVref
p518
aVUS 41
p519
aVname
p520
aVNorth Lake Shore Drive
p521
aVlanes
p522
aV4
p523
aVoneway
p524
aVyes
p525
aVhighway
p526
aVtrunk
p527
asbag1
(g2
g3
Ntp528
Rp529
(dp530
g7
(lp531
L26794429L
aL26794430L
asg9
(lp532
I17
aI17
asg11
L23852353L
sg12
(lp533
VNHS
p534
aVyes
p535
aVhgv
p536
aVno
p537
aVref
p538
aVUS 41
p539
aVname
p540
aVNorth Lake Shore Drive
p541
aVlanes
p542
aV4
p543
aVlayer
p544
aV1
p545
aVbridge
p546
aVyes
p547
aVoneway
p548
aVyes
p549
aVhighway
p550
aVtrunk
p551
asbag1
(g2
g3
Ntp552
Rp553
(dp554
g7
(lp555
L26794430L
aL258487034L
aL26794431L
aL258487035L
aL257971135L
aL258487036L
aL26794437L
aL26794438L
aL26794441L
aL257150442L
aL26794442L
aL26794443L
aL26794444L
aL26794445L
aL26794447L
aL26794449L
asg9
(lp556
I17
aI17
asg11
L23852354L
sg12
(lp557
VNHS
p558
aVyes
p559
aVhgv
p560
aVno
p561
aVref
p562
aVUS 41
p563
aVname
p564
aVNorth Lake Shore Drive
p565
aVlanes
p566
aV4
p567
aVoneway
p568
aVyes
p569
aVhighway
p570
aVtrunk
p571
asbag1
(g2
g3
Ntp572
Rp573
(dp574
g7
(lp575
L26794430L
aL258487034L
aL26794431L
aL258487035L
aL257971135L
aL258487036L
aL26794437L
aL26794438L
aL26794441L
aL257150442L
aL26794442L
aL26794443L
aL26794444L
aL26794445L
aL26794447L
aL26794449L
asg9
(lp576
I17
aI17
asg11
L23852354L
sg12
(lp577
VNHS
p578
aVyes
p579
aVhgv
p580
aVno
p581
aVref
p582
aVUS 41
p583
aVname
p584
aVNorth Lake Shore Drive
p585
aVlanes
p586
aV4
p587
aVoneway
p588
aVyes
p589
aVhighway
p590
aVtrunk
p591
asbag1
(g2
g3
Ntp592
Rp593
(dp594
g7
(lp595
L26794430L
aL258487034L
aL26794431L
aL258487035L
aL257971135L
aL258487036L
aL26794437L
aL26794438L
aL26794441L
aL257150442L
aL26794442L
aL26794443L
aL26794444L
aL26794445L
aL26794447L
aL26794449L
asg9
(lp596
I17
aI17
asg11
L23852354L
sg12
(lp597
VNHS
p598
aVyes
p599
aVhgv
p600
aVno
p601
aVref
p602
aVUS 41
p603
aVname
p604
aVNorth Lake Shore Drive
p605
aVlanes
p606
aV4
p607
aVoneway
p608
aVyes
p609
aVhighway
p610
aVtrunk
p611
asbag1
(g2
g3
Ntp612
Rp613
(dp614
g7
(lp615
L26794430L
aL258487034L
aL26794431L
aL258487035L
aL257971135L
aL258487036L
aL26794437L
aL26794438L
aL26794441L
aL257150442L
aL26794442L
aL26794443L
aL26794444L
aL26794445L
aL26794447L
aL26794449L
asg9
(lp616
I17
aI17
asg11
L23852354L
sg12
(lp617
VNHS
p618
aVyes
p619
aVhgv
p620
aVno
p621
aVref
p622
aVUS 41
p623
aVname
p624
aVNorth Lake Shore Drive
p625
aVlanes
p626
aV4
p627
aVoneway
p628
aVyes
p629
aVhighway
p630
aVtrunk
p631
asbag1
(g2
g3
Ntp632
Rp633
(dp634
g7
(lp635
L26794430L
aL258487034L
aL26794431L
aL258487035L
aL257971135L
aL258487036L
aL26794437L
aL26794438L
aL26794441L
aL257150442L
aL26794442L
aL26794443L
aL26794444L
aL26794445L
aL26794447L
aL26794449L
asg9
(lp636
I17
aI17
asg11
L23852354L
sg12
(lp637
VNHS
p638
aVyes
p639
aVhgv
p640
aVno
p641
aVref
p642
aVUS 41
p643
aVname
p644
aVNorth Lake Shore Drive
p645
aVlanes
p646
aV4
p647
aVoneway
p648
aVyes
p649
aVhighway
p650
aVtrunk
p651
asbag1
(g2
g3
Ntp652
Rp653
(dp654
g7
(lp655
L26794430L
aL258487034L
aL26794431L
aL258487035L
aL257971135L
aL258487036L
aL26794437L
aL26794438L
aL26794441L
aL257150442L
aL26794442L
aL26794443L
aL26794444L
aL26794445L
aL26794447L
aL26794449L
asg9
(lp656
I17
aI17
asg11
L23852354L
sg12
(lp657
VNHS
p658
aVyes
p659
aVhgv
p660
aVno
p661
aVref
p662
aVUS 41
p663
aVname
p664
aVNorth Lake Shore Drive
p665
aVlanes
p666
aV4
p667
aVoneway
p668
aVyes
p669
aVhighway
p670
aVtrunk
p671
asbag1
(g2
g3
Ntp672
Rp673
(dp674
g7
(lp675
L26794430L
aL258487034L
aL26794431L
aL258487035L
aL257971135L
aL258487036L
aL26794437L
aL26794438L
aL26794441L
aL257150442L
aL26794442L
aL26794443L
aL26794444L
aL26794445L
aL26794447L
aL26794449L
asg9
(lp676
I17
aI17
asg11
L23852354L
sg12
(lp677
VNHS
p678
aVyes
p679
aVhgv
p680
aVno
p681
aVref
p682
aVUS 41
p683
aVname
p684
aVNorth Lake Shore Drive
p685
aVlanes
p686
aV4
p687
aVoneway
p688
aVyes
p689
aVhighway
p690
aVtrunk
p691
asbag1
(g2
g3
Ntp692
Rp693
(dp694
g7
(lp695
L26794430L
aL258487034L
aL26794431L
aL258487035L
aL257971135L
aL258487036L
aL26794437L
aL26794438L
aL26794441L
aL257150442L
aL26794442L
aL26794443L
aL26794444L
aL26794445L
aL26794447L
aL26794449L
asg9
(lp696
I17
aI17
asg11
L23852354L
sg12
(lp697
VNHS
p698
aVyes
p699
aVhgv
p700
aVno
p701
aVref
p702
aVUS 41
p703
aVname
p704
aVNorth Lake Shore Drive
p705
aVlanes
p706
aV4
p707
aVoneway
p708
aVyes
p709
aVhighway
p710
aVtrunk
p711
asbag1
(g2
g3
Ntp712
Rp713
(dp714
g7
(lp715
L26794430L
aL258487034L
aL26794431L
aL258487035L
aL257971135L
aL258487036L
aL26794437L
aL26794438L
aL26794441L
aL257150442L
aL26794442L
aL26794443L
aL26794444L
aL26794445L
aL26794447L
aL26794449L
asg9
(lp716
I17
aI17
asg11
L23852354L
sg12
(lp717
VNHS
p718
aVyes
p719
aVhgv
p720
aVno
p721
aVref
p722
aVUS 41
p723
aVname
p724
aVNorth Lake Shore Drive
p725
aVlanes
p726
aV4
p727
aVoneway
p728
aVyes
p729
aVhighway
p730
aVtrunk
p731
asbag1
(g2
g3
Ntp732
Rp733
(dp734
g7
(lp735
L26794449L
aL2213814392L
aL26794450L
asg9
(lp736
I17
aI17
asg11
L374037402L
sg12
(lp737
VNHS
p738
aVyes
p739
aVhgv
p740
aVno
p741
aVref
p742
aVUS 41
p743
aVname
p744
aVNorth Lake Shore Drive
p745
aVlanes
p746
aV4
p747
aVoneway
p748
aVyes
p749
aVhighway
p750
aVtrunk
p751
asbag1
(g2
g3
Ntp752
Rp753
(dp754
g7
(lp755
L26794450L
aL26794454L
asg9
(lp756
I17
aI17
asg11
L4694849L
sg12
(lp757
VNHS
p758
aVyes
p759
aVhgv
p760
aVno
p761
aVref
p762
aVUS 41
p763
aVname
p764
aVNorth Lake Shore Drive
p765
aVlanes
p766
aV4
p767
aVlayer
p768
aV1
p769
aVbridge
p770
aVyes
p771
aVoneway
p772
aVyes
p773
aVhighway
p774
aVtrunk
p775
asbag1
(g2
g3
Ntp776
Rp777
(dp778
g7
(lp779
L26794454L
aL26794462L
aL26794464L
aL26794489L
aL26794466L
aL258486782L
asg9
(lp780
I17
aI17
asg11
L4694848L
sg12
(lp781
VNHS
p782
aVyes
p783
aVhgv
p784
aVno
p785
aVref
p786
aVUS 41
p787
aVname
p788
aVNorth Lake Shore Drive
p789
aVlanes
p790
aV4
p791
aVoneway
p792
aVyes
p793
aVhighway
p794
aVtrunk
p795
asbag1
(g2
g3
Ntp796
Rp797
(dp798
g7
(lp799
L26794454L
aL26794462L
aL26794464L
aL26794489L
aL26794466L
aL258486782L
asg9
(lp800
I17
aI17
asg11
L4694848L
sg12
(lp801
VNHS
p802
aVyes
p803
aVhgv
p804
aVno
p805
aVref
p806
aVUS 41
p807
aVname
p808
aVNorth Lake Shore Drive
p809
aVlanes
p810
aV4
p811
aVoneway
p812
aVyes
p813
aVhighway
p814
aVtrunk
p815
asbag1
(g2
g3
Ntp816
Rp817
(dp818
g7
(lp819
L26794454L
aL26794462L
aL26794464L
aL26794489L
aL26794466L
aL258486782L
asg9
(lp820
I17
aI17
asg11
L4694848L
sg12
(lp821
VNHS
p822
aVyes
p823
aVhgv
p824
aVno
p825
aVref
p826
aVUS 41
p827
aVname
p828
aVNorth Lake Shore Drive
p829
aVlanes
p830
aV4
p831
aVoneway
p832
aVyes
p833
aVhighway
p834
aVtrunk
p835
asbag1
(g2
g3
Ntp836
Rp837
(dp838
g7
(lp839
L26794454L
aL26794462L
aL26794464L
aL26794489L
aL26794466L
aL258486782L
asg9
(lp840
I17
aI17
asg11
L4694848L
sg12
(lp841
VNHS
p842
aVyes
p843
aVhgv
p844
aVno
p845
aVref
p846
aVUS 41
p847
aVname
p848
aVNorth Lake Shore Drive
p849
aVlanes
p850
aV4
p851
aVoneway
p852
aVyes
p853
aVhighway
p854
aVtrunk
p855
asbag1
(g2
g3
Ntp856
Rp857
(dp858
g7
(lp859
L258486782L
aL339269359L
aL26794467L
aL26794468L
aL26794474L
aL258486763L
aL258486764L
aL258486662L
asg9
(lp860
I17
aI17
asg11
L30679326L
sg12
(lp861
VNHS
p862
aVyes
p863
aVhgv
p864
aVno
p865
aVref
p866
aVUS 41
p867
aVname
p868
aVNorth Lake Shore Drive
p869
aVlanes
p870
aV4
p871
aVoneway
p872
aVyes
p873
aVhighway
p874
aVtrunk
p875
asbag1
(g2
g3
Ntp876
Rp877
(dp878
g7
(lp879
L258486782L
aL339269359L
aL26794467L
aL26794468L
aL26794474L
aL258486763L
aL258486764L
aL258486662L
asg9
(lp880
I17
aI17
asg11
L30679326L
sg12
(lp881
VNHS
p882
aVyes
p883
aVhgv
p884
aVno
p885
aVref
p886
aVUS 41
p887
aVname
p888
aVNorth Lake Shore Drive
p889
aVlanes
p890
aV4
p891
aVoneway
p892
aVyes
p893
aVhighway
p894
aVtrunk
p895
asbag1
(g2
g3
Ntp896
Rp897
(dp898
g7
(lp899
L258486782L
aL339269359L
aL26794467L
aL26794468L
aL26794474L
aL258486763L
aL258486764L
aL258486662L
asg9
(lp900
I17
aI17
asg11
L30679326L
sg12
(lp901
VNHS
p902
aVyes
p903
aVhgv
p904
aVno
p905
aVref
p906
aVUS 41
p907
aVname
p908
aVNorth Lake Shore Drive
p909
aVlanes
p910
aV4
p911
aVoneway
p912
aVyes
p913
aVhighway
p914
aVtrunk
p915
asbag1
(g2
g3
Ntp916
Rp917
(dp918
g7
(lp919
L26794475L
aL257113700L
aL257113406L
aL26794478L
asg9
(lp920
I17
aI17
asg11
L23852328L
sg12
(lp921
VNHS
p922
aVyes
p923
aVhgv
p924
aVno
p925
aVref
p926
aVUS 41
p927
aVname
p928
aVNorth Lake Shore Drive
p929
aVlanes
p930
aV4
p931
aVoneway
p932
aVyes
p933
aVhighway
p934
aVtrunk
p935
asbag1
(g2
g3
Ntp936
Rp937
(dp938
g7
(lp939
L26794478L
aL258486554L
asg9
(lp940
I17
aI17
asg11
L23852322L
sg12
(lp941
VNHS
p942
aVyes
p943
aVhgv
p944
aVno
p945
aVref
p946
aVUS 41
p947
aVname
p948
aVNorth Lake Shore Drive
p949
aVlanes
p950
aV4
p951
aVlayer
p952
aV1
p953
aVbridge
p954
aVyes
p955
aVoneway
p956
aVyes
p957
aVhighway
p958
aVtrunk
p959
asbag1
(g2
g3
Ntp960
Rp961
(dp962
g7
(lp963
L26794454L
aL26794462L
aL26794464L
aL26794489L
aL26794466L
aL258486782L
asg9
(lp964
I17
aI17
asg11
L4694848L
sg12
(lp965
VNHS
p966
aVyes
p967
aVhgv
p968
aVno
p969
aVref
p970
aVUS 41
p971
aVname
p972
aVNorth Lake Shore Drive
p973
aVlanes
p974
aV4
p975
aVoneway
p976
aVyes
p977
aVhighway
p978
aVtrunk
p979
asbag1
(g2
g3
Ntp980
Rp981
(dp982
g7
(lp983
L27446720L
aL27446709L
aL740243555L
aL27446708L
aL2392113522L
aL740243676L
aL2392113519L
aL27440221L
asg9
(lp984
I4
aI4
asg11
L23887717L
sg12
(lp985
Vname
p986
aVSouth State Street
p987
aVlanes
p988
aV4
p989
aVhighway
p990
aVprimary
p991
aVloc_ref
p992
aV0 - E & W
p993
asbag1
(g2
g3
Ntp994
Rp995
(dp996
g7
(lp997
L27440221L
aL2390754622L
aL2390619213L
aL27440235L
asg9
(lp998
I4
aI4
asg11
L328987166L
sg12
(lp999
Vname
p1000
aVSouth State Street
p1001
aVlanes
p1002
aV4
p1003
aVhighway
p1004
aVprimary
p1005
aVloc_ref
p1006
aV0 - E & W
p1007
asbag1
(g2
g3
Ntp1008
Rp1009
(dp1010
g7
(lp1011
L27440242L
aL27440247L
asg9
(lp1012
I1
aI1
asg11
L313874093L
sg12
(lp1013
Vname
p1014
aVEast Congress Parkway
p1015
aVoneway
p1016
aVyes
p1017
aVhighway
p1018
aVsecondary
p1019
aVloc_ref
p1020
aV500 S
p1021
aVsidewalk
p1022
aVright
p1023
asbag1
(g2
g3
Ntp1024
Rp1025
(dp1026
g7
(lp1027
L272208894L
aL2787305569L
aL1947573146L
aL740237252L
aL27440244L
aL740237253L
aL258024595L
aL2871599692L
aL740237254L
aL258024597L
aL2787305648L
asg9
(lp1028
I0
aI1
asg11
L313874094L
sg12
(lp1029
Vname
p1030
aVEast Congress Plaza Drive
p1031
aVhighway
p1032
aVtertiary
p1033
aVloc_ref
p1034
aV100 E
p1035
aVsidewalk
p1036
aVboth
p1037
asbag1
(g2
g3
Ntp1038
Rp1039
(dp1040
g7
(lp1041
L27440247L
aL709412789L
asg9
(lp1042
I1
aI2
asg11
L33917148L
sg12
(lp1043
Vname
p1044
aVEast Congress Parkway
p1045
aVoneway
p1046
aVyes
p1047
aVhighway
p1048
aVprimary
p1049
aVloc_ref
p1050
aV500 S
p1051
aVsidewalk
p1052
aVright
p1053
asbag1
(g2
g3
Ntp1054
Rp1055
(dp1056
g7
(lp1057
L27440478L
aL269446277L
aL3191762969L
aL269446398L
aL269446397L
aL250755819L
aL250755811L
asg9
(lp1058
I15
aI16
asg11
L288713925L
sg12
(lp1059
Vname
p1060
aVEast Walton Street
p1061
aVoneway
p1062
aVyes
p1063
aVhighway
p1064
aVtertiary
p1065
asbag1
(g2
g3
Ntp1066
Rp1067
(dp1068
g7
(lp1069
L27440482L
aL1648217755L
aL736864190L
aL713334463L
aL3191766362L
aL27440481L
aL3191766365L
aL736864191L
aL713334464L
aL736864193L
aL3191763969L
aL27440480L
aL3191763967L
aL2396299124L
aL2396293695L
aL2422420957L
aL2396293696L
aL2396300353L
aL3191763963L
aL27440479L
aL3191762973L
aL3191762971L
aL27440478L
aL3191762967L
aL713312029L
asg9
(lp1070
I15
aI15
asg11
L106783557L
sg12
(lp1071
Vname
p1072
aVNorth Michigan Avenue
p1073
aVoneway
p1074
aVyes
p1075
aVhighway
p1076
aVprimary
p1077
asbag1
(g2
g3
Ntp1078
Rp1079
(dp1080
g7
(lp1081
L27440564L
aL1573058714L
aL2403015360L
aL3575173998L
aL2422420284L
aL3191763968L
aL27440480L
aL269446279L
asg9
(lp1082
I14
aI14
asg11
L59420782L
sg12
(lp1083
Vname
p1084
aVEast Chestnut Street
p1085
aVoneway
p1086
aVyes
p1087
aVhighway
p1088
aVresidential
p1089
aVtiger:cfcc
p1090
aVA41
p1091
aVtiger:county
p1092
aVCook, IL
p1093
aVtiger:reviewed
p1094
aVno
p1095
aVtiger:zip_left
p1096
aV60611
p1097
aVtiger:name_base
p1098
aVChestnut
p1099
aVtiger:name_type
p1100
aVSt
p1101
aVtiger:zip_right
p1102
aV60611
p1103
aVtiger:name_direction_prefix
p1104
aVE
p1105
asbag1
(g2
g3
Ntp1106
Rp1107
(dp1108
g7
(lp1109
L27440482L
aL1648217755L
aL736864190L
aL713334463L
aL3191766362L
aL27440481L
aL3191766365L
aL736864191L
aL713334464L
aL736864193L
aL3191763969L
aL27440480L
aL3191763967L
aL2396299124L
aL2396293695L
aL2422420957L
aL2396293696L
aL2396300353L
aL3191763963L
aL27440479L
aL3191762973L
aL3191762971L
aL27440478L
aL3191762967L
aL713312029L
asg9
(lp1110
I14
aI14
asg11
L106783557L
sg12
(lp1111
Vname
p1112
aVNorth Michigan Avenue
p1113
aVoneway
p1114
aVyes
p1115
aVhighway
p1116
aVprimary
p1117
asbag1
(g2
g3
Ntp1118
Rp1119
(dp1120
g7
(lp1121
L27440482L
aL1648217755L
aL736864190L
aL713334463L
aL3191766362L
aL27440481L
aL3191766365L
aL736864191L
aL713334464L
aL736864193L
aL3191763969L
aL27440480L
aL3191763967L
aL2396299124L
aL2396293695L
aL2422420957L
aL2396293696L
aL2396300353L
aL3191763963L
aL27440479L
aL3191762973L
aL3191762971L
aL27440478L
aL3191762967L
aL713312029L
asg9
(lp1122
I14
aI14
asg11
L106783557L
sg12
(lp1123
Vname
p1124
aVNorth Michigan Avenue
p1125
aVoneway
p1126
aVyes
p1127
aVhighway
p1128
aVprimary
p1129
asbag1
(g2
g3
Ntp1130
Rp1131
(dp1132
g7
(lp1133
L258965972L
aL3191766673L
aL3918786383L
aL3191766669L
aL272213455L
aL3191766667L
aL3191766379L
aL261161069L
aL3191766375L
aL3191766373L
aL27440483L
aL3191766369L
aL713334461L
aL713334462L
aL736864188L
aL3191766367L
aL27440482L
asg9
(lp1134
I14
aI14
asg11
L255369389L
sg12
(lp1135
Vname
p1136
aVNorth Michigan Avenue
p1137
aVoneway
p1138
aVyes
p1139
aVhighway
p1140
aVprimary
p1141
asbag1
(g2
g3
Ntp1142
Rp1143
(dp1144
g7
(lp1145
L27446495L
aL4156112909L
aL740260310L
aL740260419L
aL740260420L
asg9
(lp1146
I7
aI7
asg11
L145846240L
sg12
(lp1147
Vname
p1148
aVNorth Michigan Avenue
p1149
aVoneway
p1150
aVyes
p1151
aVbicycle
p1152
aVdesignated
p1153
aVhighway
p1154
aVprimary
p1155
aVloc_ref
p1156
aV100 E
p1157
aVsidewalk
p1158
aVright
p1159
asbag1
(g2
g3
Ntp1160
Rp1161
(dp1162
g7
(lp1163
L27446496L
aL369883857L
aL740260181L
aL27446495L
asg9
(lp1164
I7
aI7
asg11
L316912738L
sg12
(lp1165
Vname
p1166
aVEast Washington Street
p1167
aVoneway
p1168
aVyes
p1169
aVbicycle
p1170
aVdesignated
p1171
aVhighway
p1172
aVprimary
p1173
aVloc_ref
p1174
aV100 N
p1175
aVsidewalk
p1176
aVboth
p1177
asbag1
(g2
g3
Ntp1178
Rp1179
(dp1180
g7
(lp1181
L27446500L
aL740363363L
aL740363364L
aL28358991L
asg9
(lp1182
I8
aI8
asg11
L255370137L
sg12
(lp1183
Vname
p1184
aVNorth Michigan Avenue
p1185
aVlayer
p1186
aV1
p1187
aVoneway
p1188
aVyes
p1189
aVhighway
p1190
aVprimary
p1191
aVloc_ref
p1192
aV100 E
p1193
asbag1
(g2
g3
Ntp1194
Rp1195
(dp1196
g7
(lp1197
L269446292L
aL257164338L
aL740365207L
aL258932582L
aL739118994L
aL1564550904L
aL4208769282L
aL258958980L
aL271183109L
aL269446282L
aL27446502L
aL269446292L
asg9
(lp1198
I9
aI9
asg11
L377619093L
sg12
(lp1199
Varea
p1200
aVyes
p1201
asbag1
(g2
g3
Ntp1202
Rp1203
(dp1204
g7
(lp1205
L27446720L
aL27446709L
aL740243555L
aL27446708L
aL2392113522L
aL740243676L
aL2392113519L
aL27440221L
asg9
(lp1206
I4
aI5
asg11
L23887717L
sg12
(lp1207
Vname
p1208
aVSouth State Street
p1209
aVlanes
p1210
aV4
p1211
aVhighway
p1212
aVprimary
p1213
aVloc_ref
p1214
aV0 - E & W
p1215
asbag1
(g2
g3
Ntp1216
Rp1217
(dp1218
g7
(lp1219
L27446720L
aL706968769L
aL4156112922L
aL740243454L
aL2401831551L
aL2391003237L
aL4156112932L
aL28289299L
aL2892003846L
aL4156112927L
aL2391030896L
aL2391030898L
aL28289310L
aL28289318L
aL27477590L
asg9
(lp1220
I5
aI5
asg11
L4543073L
sg12
(lp1221
Vname
p1222
aVWest Madison Street
p1223
aVbusway
p1224
aVlane
p1225
aVoneway
p1226
aVyes
p1227
aVhighway
p1228
aVsecondary
p1229
aVloc_ref
p1230
aV0 N/S
p1231
aVcycleway
p1232
aVlane
p1233
asbag1
(g2
g3
Ntp1234
Rp1235
(dp1236
g7
(lp1237
L27446756L
aL4156112903L
aL262173260L
aL4156112914L
aL27446496L
asg9
(lp1238
I7
aI7
asg11
L385889739L
sg12
(lp1239
Vname
p1240
aVEast Washington Street
p1241
aVoneway
p1242
aVyes
p1243
aVbicycle
p1244
aVdesignated
p1245
aVhighway
p1246
aVprimary
p1247
aVloc_ref
p1248
aV100 N
p1249
aVcycleway
p1250
aVtrack
p1251
aVsidewalk
p1252
aVboth
p1253
asbag1
(g2
g3
Ntp1254
Rp1255
(dp1256
g7
(lp1257
L27721221L
aL2398529871L
aL2395425329L
aL369890733L
aL369890812L
aL736917894L
aL27721224L
aL2395425330L
aL736862003L
aL931260010L
aL736860897L
aL3884752869L
asg9
(lp1258
I10
aI10
asg11
L4519037L
sg12
(lp1259
Vname
p1260
aVNorth Michigan Avenue
p1261
aVlayer
p1262
aV1
p1263
aVoneway
p1264
aVyes
p1265
aVhighway
p1266
aVprimary
p1267
aVloc_ref
p1268
aV100 E
p1269
asbag1
(g2
g3
Ntp1270
Rp1271
(dp1272
g7
(lp1273
L27721221L
aL2398529871L
aL2395425329L
aL369890733L
aL369890812L
aL736917894L
aL27721224L
aL2395425330L
aL736862003L
aL931260010L
aL736860897L
aL3884752869L
asg9
(lp1274
I10
aI10
asg11
L4519037L
sg12
(lp1275
Vname
p1276
aVNorth Michigan Avenue
p1277
aVlayer
p1278
aV1
p1279
aVoneway
p1280
aVyes
p1281
aVhighway
p1282
aVprimary
p1283
aVloc_ref
p1284
aV100 E
p1285
asbag1
(g2
g3
Ntp1286
Rp1287
(dp1288
g7
(lp1289
L27721250L
aL3191766678L
aL3918784922L
aL3191766675L
aL258965972L
asg9
(lp1290
I12
aI12
asg11
L48842832L
sg12
(lp1291
Vname
p1292
aVNorth Michigan Avenue
p1293
aVoneway
p1294
aVyes
p1295
aVhighway
p1296
aVprimary
p1297
asbag1
(g2
g3
Ntp1298
Rp1299
(dp1300
g7
(lp1301
L28290277L
aL3211798021L
aL2391030903L
aL2391027633L
aL740260072L
aL2391027639L
aL3211798020L
aL4156112934L
aL28289299L
asg9
(lp1302
I6
aI6
asg11
L315089479L
sg12
(lp1303
Vname
p1304
aVNorth Dearborn Street
p1305
aVbench
p1306
aVyes
p1307
aVoneway
p1308
aV-1
p1309
aVhighway
p1310
aVsecondary
p1311
aVloc_ref
p1312
aV50 W
p1313
aVshelter
p1314
aVno
p1315
aVoperator
p1316
aVChicago Transit Authority
p1317
asbag1
(g2
g3
Ntp1318
Rp1319
(dp1320
g7
(lp1321
L28290256L
aL4156112895L
aL740260178L
aL2391120252L
aL4156112907L
aL27446756L
asg9
(lp1322
I6
aI6
asg11
L151989531L
sg12
(lp1323
Vname
p1324
aVEast Washington Street
p1325
aVbusway
p1326
aVlane
p1327
aVoneway
p1328
aVyes
p1329
aVbicycle
p1330
aVdesignated
p1331
aVhighway
p1332
aVprimary
p1333
aVloc_ref
p1334
aV100 N
p1335
aVcycleway
p1336
aVtrack
p1337
aVsidewalk
p1338
aVboth
p1339
asbag1
(g2
g3
Ntp1340
Rp1341
(dp1342
g7
(lp1343
L28290277L
aL4156112899L
aL28290256L
asg9
(lp1344
I6
aI6
asg11
L315089480L
sg12
(lp1345
Vname
p1346
aVWest Washington Street
p1347
aVbusway
p1348
aVlane
p1349
aVoneway
p1350
aVyes
p1351
aVbicycle
p1352
aVdesignated
p1353
aVhighway
p1354
aVprimary
p1355
aVloc_ref
p1356
aV100 N
p1357
aVcycleway
p1358
aVtrack
p1359
asbag1
(g2
g3
Ntp1360
Rp1361
(dp1362
g7
(lp1363
L28358991L
aL27446502L
asg9
(lp1364
I9
aI9
asg11
L230775780L
sg12
(lp1365
Vname
p1366
aVNorth Michigan Avenue
p1367
aVlayer
p1368
aV1
p1369
aVoneway
p1370
aVyes
p1371
aVhighway
p1372
aVprimary
p1373
aVloc_ref
p1374
aV100 E
p1375
asbag1
(g2
g3
Ntp1376
Rp1377
(dp1378
g7
(lp1379
L258486303L
aL153401283L
aL153401285L
aL257109633L
asg9
(lp1380
I17
aI17
asg11
L23998840L
sg12
(lp1381
VNHS
p1382
aVyes
p1383
aVhgv
p1384
aVno
p1385
aVref
p1386
aVUS 41
p1387
aVname
p1388
aVNorth Lake Shore Drive
p1389
aVlanes
p1390
aV4
p1391
aVoneway
p1392
aVyes
p1393
aVhighway
p1394
aVtrunk
p1395
asbag1
(g2
g3
Ntp1396
Rp1397
(dp1398
g7
(lp1399
L258486303L
aL153401283L
aL153401285L
aL257109633L
asg9
(lp1400
I17
aI17
asg11
L23998840L
sg12
(lp1401
VNHS
p1402
aVyes
p1403
aVhgv
p1404
aVno
p1405
aVref
p1406
aVUS 41
p1407
aVname
p1408
aVNorth Lake Shore Drive
p1409
aVlanes
p1410
aV4
p1411
aVoneway
p1412
aVyes
p1413
aVhighway
p1414
aVtrunk
p1415
asbag1
(g2
g3
Ntp1416
Rp1417
(dp1418
g7
(lp1419
L158733116L
aL257097046L
asg9
(lp1420
I17
aI17
asg11
L377866955L
sg12
(lp1421
Vref
p1422
aVUS 41
p1423
aVname
p1424
aVWest Foster Avenue
p1425
aVlanes
p1426
aV4
p1427
aVhighway
p1428
aVsecondary
p1429
asbag1
(g2
g3
Ntp1430
Rp1431
(dp1432
g7
(lp1433
L257108196L
aL2256944414L
aL158733117L
aL4065790502L
aL1980577617L
aL2174877770L
aL4065973073L
aL158733116L
asg9
(lp1434
I17
aI17
asg11
L51878127L
sg12
(lp1435
Vref
p1436
aVUS 41
p1437
aVname
p1438
aVWest Foster Avenue
p1439
aVlanes
p1440
aV4
p1441
aVhighway
p1442
aVsecondary
p1443
asbag1
(g2
g3
Ntp1444
Rp1445
(dp1446
g7
(lp1447
L739097268L
aL739097559L
aL739101922L
aL739101923L
aL26098153L
aL739101924L
aL739101925L
aL250755885L
aL26098155L
aL26098157L
aL4075955311L
aL271146941L
aL4075955310L
aL26098158L
aL26098159L
asg9
(lp1448
I17
aI17
asg11
L317622794L
sg12
(lp1449
VNHS
p1450
aVyes
p1451
aVhgv
p1452
aVno
p1453
aVref
p1454
aVUS 41
p1455
aVname
p1456
aVNorth Lake Shore Drive
p1457
aVlanes
p1458
aV4
p1459
aVoneway
p1460
aVyes
p1461
aVhighway
p1462
aVtrunk
p1463
asbag1
(g2
g3
Ntp1464
Rp1465
(dp1466
g7
(lp1467
L258487920L
aL250755898L
aL26098161L
aL258487910L
aL26098162L
aL26098164L
aL26098165L
aL26098166L
asg9
(lp1468
I17
aI17
asg11
L23852447L
sg12
(lp1469
VNHS
p1470
aVyes
p1471
aVhgv
p1472
aVno
p1473
aVlit
p1474
aVyes
p1475
aVref
p1476
aVUS 41
p1477
aVname
p1478
aVNorth Lake Shore Drive
p1479
aVlanes
p1480
aV4
p1481
aVoneway
p1482
aVyes
p1483
aVhighway
p1484
aVtrunk
p1485
asbag1
(g2
g3
Ntp1486
Rp1487
(dp1488
g7
(lp1489
L2395940339L
aL4065973895L
aL2213402523L
aL2394540265L
aL4065973062L
aL257097046L
asg9
(lp1490
I17
aI17
asg11
L121165691L
sg12
(lp1491
Vref
p1492
aVUS 41
p1493
aVname
p1494
aVWest Foster Avenue
p1495
aVlanes
p1496
aV3
p1497
aVhighway
p1498
aVsecondary
p1499
asbag1
(g2
g3
Ntp1500
Rp1501
(dp1502
g7
(lp1503
L257108196L
aL2256944414L
aL158733117L
aL4065790502L
aL1980577617L
aL2174877770L
aL4065973073L
aL158733116L
asg9
(lp1504
I17
aI17
asg11
L51878127L
sg12
(lp1505
Vref
p1506
aVUS 41
p1507
aVname
p1508
aVWest Foster Avenue
p1509
aVlanes
p1510
aV4
p1511
aVhighway
p1512
aVsecondary
p1513
asbag1
(g2
g3
Ntp1514
Rp1515
(dp1516
g7
(lp1517
L257109633L
aL257109691L
aL257109692L
aL257109693L
aL2256944378L
aL4065790499L
aL257108196L
asg9
(lp1518
I17
aI17
asg11
L23740750L
sg12
(lp1519
Vhgv
p1520
aVno
p1521
aVref
p1522
aVUS 41
p1523
aVlanes
p1524
aV1
p1525
aVoneway
p1526
aVyes
p1527
aVhighway
p1528
aVtrunk_link
p1529
asbag1
(g2
g3
Ntp1530
Rp1531
(dp1532
g7
(lp1533
L257109633L
aL257109691L
aL257109692L
aL257109693L
aL2256944378L
aL4065790499L
aL257108196L
asg9
(lp1534
I17
aI17
asg11
L23740750L
sg12
(lp1535
Vhgv
p1536
aVno
p1537
aVref
p1538
aVUS 41
p1539
aVlanes
p1540
aV1
p1541
aVoneway
p1542
aVyes
p1543
aVhighway
p1544
aVtrunk_link
p1545
asbag1
(g2
g3
Ntp1546
Rp1547
(dp1548
g7
(lp1549
L257109633L
aL257109691L
aL257109692L
aL257109693L
aL2256944378L
aL4065790499L
aL257108196L
asg9
(lp1550
I17
aI17
asg11
L23740750L
sg12
(lp1551
Vhgv
p1552
aVno
p1553
aVref
p1554
aVUS 41
p1555
aVlanes
p1556
aV1
p1557
aVoneway
p1558
aVyes
p1559
aVhighway
p1560
aVtrunk_link
p1561
asbag1
(g2
g3
Ntp1562
Rp1563
(dp1564
g7
(lp1565
L257109633L
aL257109691L
aL257109692L
aL257109693L
aL2256944378L
aL4065790499L
aL257108196L
asg9
(lp1566
I17
aI17
asg11
L23740750L
sg12
(lp1567
Vhgv
p1568
aVno
p1569
aVref
p1570
aVUS 41
p1571
aVlanes
p1572
aV1
p1573
aVoneway
p1574
aVyes
p1575
aVhighway
p1576
aVtrunk_link
p1577
asbag1
(g2
g3
Ntp1578
Rp1579
(dp1580
g7
(lp1581
L258486554L
aL271135088L
aL257110496L
aL271135089L
aL258486339L
asg9
(lp1582
I17
aI17
asg11
L23852325L
sg12
(lp1583
VNHS
p1584
aVyes
p1585
aVhgv
p1586
aVno
p1587
aVref
p1588
aVUS 41
p1589
aVname
p1590
aVNorth Lake Shore Drive
p1591
aVlanes
p1592
aV4
p1593
aVoneway
p1594
aVyes
p1595
aVhighway
p1596
aVtrunk
p1597
asbag1
(g2
g3
Ntp1598
Rp1599
(dp1600
g7
(lp1601
L26794475L
aL257113700L
aL257113406L
aL26794478L
asg9
(lp1602
I17
aI17
asg11
L23852328L
sg12
(lp1603
VNHS
p1604
aVyes
p1605
aVhgv
p1606
aVno
p1607
aVref
p1608
aVUS 41
p1609
aVname
p1610
aVNorth Lake Shore Drive
p1611
aVlanes
p1612
aV4
p1613
aVoneway
p1614
aVyes
p1615
aVhighway
p1616
aVtrunk
p1617
asbag1
(g2
g3
Ntp1618
Rp1619
(dp1620
g7
(lp1621
L26794475L
aL257113700L
aL257113406L
aL26794478L
asg9
(lp1622
I17
aI17
asg11
L23852328L
sg12
(lp1623
VNHS
p1624
aVyes
p1625
aVhgv
p1626
aVno
p1627
aVref
p1628
aVUS 41
p1629
aVname
p1630
aVNorth Lake Shore Drive
p1631
aVlanes
p1632
aV4
p1633
aVoneway
p1634
aVyes
p1635
aVhighway
p1636
aVtrunk
p1637
asbag1
(g2
g3
Ntp1638
Rp1639
(dp1640
g7
(lp1641
L257146995L
aL257121401L
aL2394561325L
aL257170011L
aL3660938551L
aL2394540344L
aL2783790293L
aL257170271L
aL2783790294L
aL4072793308L
aL1531380379L
asg9
(lp1642
I21
aI21
asg11
L317622791L
sg12
(lp1643
Vname
p1644
aVNorth Sheridan Road
p1645
aVoneway
p1646
aVno
p1647
aVhighway
p1648
aVsecondary
p1649
aVtiger:cfcc
p1650
aVA41
p1651
aVtiger:county
p1652
aVCook, IL
p1653
aVtiger:reviewed
p1654
aVno
p1655
aVtiger:zip_left
p1656
aV60626
p1657
aVtiger:name_base
p1658
aVSheridan
p1659
aVtiger:name_type
p1660
aVRd
p1661
aVtiger:zip_right
p1662
aV60626
p1663
aVtiger:name_direction_prefix
p1664
aVN
p1665
asbag1
(g2
g3
Ntp1666
Rp1667
(dp1668
g7
(lp1669
L257146995L
aL257121401L
aL2394561325L
aL257170011L
aL3660938551L
aL2394540344L
aL2783790293L
aL257170271L
aL2783790294L
aL4072793308L
aL1531380379L
asg9
(lp1670
I19
aI21
asg11
L317622791L
sg12
(lp1671
Vname
p1672
aVNorth Sheridan Road
p1673
aVoneway
p1674
aVno
p1675
aVhighway
p1676
aVsecondary
p1677
aVtiger:cfcc
p1678
aVA41
p1679
aVtiger:county
p1680
aVCook, IL
p1681
aVtiger:reviewed
p1682
aVno
p1683
aVtiger:zip_left
p1684
aV60626
p1685
aVtiger:name_base
p1686
aVSheridan
p1687
aVtiger:name_type
p1688
aVRd
p1689
aVtiger:zip_right
p1690
aV60626
p1691
aVtiger:name_direction_prefix
p1692
aVN
p1693
asbag1
(g2
g3
Ntp1694
Rp1695
(dp1696
g7
(lp1697
L26794430L
aL258487034L
aL26794431L
aL258487035L
aL257971135L
aL258487036L
aL26794437L
aL26794438L
aL26794441L
aL257150442L
aL26794442L
aL26794443L
aL26794444L
aL26794445L
aL26794447L
aL26794449L
asg9
(lp1698
I17
aI17
asg11
L23852354L
sg12
(lp1699
VNHS
p1700
aVyes
p1701
aVhgv
p1702
aVno
p1703
aVref
p1704
aVUS 41
p1705
aVname
p1706
aVNorth Lake Shore Drive
p1707
aVlanes
p1708
aV4
p1709
aVoneway
p1710
aVyes
p1711
aVhighway
p1712
aVtrunk
p1713
asbag1
(g2
g3
Ntp1714
Rp1715
(dp1716
g7
(lp1717
L257146995L
aL257121401L
aL2394561325L
aL257170011L
aL3660938551L
aL2394540344L
aL2783790293L
aL257170271L
aL2783790294L
aL4072793308L
aL1531380379L
asg9
(lp1718
I21
aI22
asg11
L317622791L
sg12
(lp1719
Vname
p1720
aVNorth Sheridan Road
p1721
aVoneway
p1722
aVno
p1723
aVhighway
p1724
aVsecondary
p1725
aVtiger:cfcc
p1726
aVA41
p1727
aVtiger:county
p1728
aVCook, IL
p1729
aVtiger:reviewed
p1730
aVno
p1731
aVtiger:zip_left
p1732
aV60626
p1733
aVtiger:name_base
p1734
aVSheridan
p1735
aVtiger:name_type
p1736
aVRd
p1737
aVtiger:zip_right
p1738
aV60626
p1739
aVtiger:name_direction_prefix
p1740
aVN
p1741
asbag1
(g2
g3
Ntp1742
Rp1743
(dp1744
g7
(lp1745
L257146995L
aL257121401L
aL2394561325L
aL257170011L
aL3660938551L
aL2394540344L
aL2783790293L
aL257170271L
aL2783790294L
aL4072793308L
aL1531380379L
asg9
(lp1746
I23
aI23
asg11
L317622791L
sg12
(lp1747
Vname
p1748
aVNorth Sheridan Road
p1749
aVoneway
p1750
aVno
p1751
aVhighway
p1752
aVsecondary
p1753
aVtiger:cfcc
p1754
aVA41
p1755
aVtiger:county
p1756
aVCook, IL
p1757
aVtiger:reviewed
p1758
aVno
p1759
aVtiger:zip_left
p1760
aV60626
p1761
aVtiger:name_base
p1762
aVSheridan
p1763
aVtiger:name_type
p1764
aVRd
p1765
aVtiger:zip_right
p1766
aV60626
p1767
aVtiger:name_direction_prefix
p1768
aVN
p1769
asbag1
(g2
g3
Ntp1770
Rp1771
(dp1772
g7
(lp1773
L26794430L
aL258487034L
aL26794431L
aL258487035L
aL257971135L
aL258487036L
aL26794437L
aL26794438L
aL26794441L
aL257150442L
aL26794442L
aL26794443L
aL26794444L
aL26794445L
aL26794447L
aL26794449L
asg9
(lp1774
I17
aI17
asg11
L23852354L
sg12
(lp1775
VNHS
p1776
aVyes
p1777
aVhgv
p1778
aVno
p1779
aVref
p1780
aVUS 41
p1781
aVname
p1782
aVNorth Lake Shore Drive
p1783
aVlanes
p1784
aV4
p1785
aVoneway
p1786
aVyes
p1787
aVhighway
p1788
aVtrunk
p1789
asbag1
(g2
g3
Ntp1790
Rp1791
(dp1792
g7
(lp1793
L258021042L
aL2476167244L
aL27721221L
asg9
(lp1794
I10
aI10
asg11
L23810087L
sg12
(lp1795
Vname
p1796
aVNorth Michigan Avenue
p1797
aVlayer
p1798
aV2
p1799
aVbridge
p1800
aVyes
p1801
aVoneway
p1802
aVyes
p1803
aVhighway
p1804
aVprimary
p1805
aVloc_ref
p1806
aV100 E
p1807
asbag1
(g2
g3
Ntp1808
Rp1809
(dp1810
g7
(lp1811
L272208894L
aL2787305569L
aL1947573146L
aL740237252L
aL27440244L
aL740237253L
aL258024595L
aL2871599692L
aL740237254L
aL258024597L
aL2787305648L
asg9
(lp1812
I0
aI0
asg11
L313874094L
sg12
(lp1813
Vname
p1814
aVEast Congress Plaza Drive
p1815
aVhighway
p1816
aVtertiary
p1817
aVloc_ref
p1818
aV100 E
p1819
aVsidewalk
p1820
aVboth
p1821
asbag1
(g2
g3
Ntp1822
Rp1823
(dp1824
g7
(lp1825
L272208894L
aL2787305569L
aL1947573146L
aL740237252L
aL27440244L
aL740237253L
aL258024595L
aL2871599692L
aL740237254L
aL258024597L
aL2787305648L
asg9
(lp1826
I0
aI0
asg11
L313874094L
sg12
(lp1827
Vname
p1828
aVEast Congress Plaza Drive
p1829
aVhighway
p1830
aVtertiary
p1831
aVloc_ref
p1832
aV100 E
p1833
aVsidewalk
p1834
aVboth
p1835
asbag1
(g2
g3
Ntp1836
Rp1837
(dp1838
g7
(lp1839
L258486303L
aL153401283L
aL153401285L
aL257109633L
asg9
(lp1840
I17
aI17
asg11
L23998840L
sg12
(lp1841
VNHS
p1842
aVyes
p1843
aVhgv
p1844
aVno
p1845
aVref
p1846
aVUS 41
p1847
aVname
p1848
aVNorth Lake Shore Drive
p1849
aVlanes
p1850
aV4
p1851
aVoneway
p1852
aVyes
p1853
aVhighway
p1854
aVtrunk
p1855
asbag1
(g2
g3
Ntp1856
Rp1857
(dp1858
g7
(lp1859
L258486339L
aL258486303L
asg9
(lp1860
I17
aI17
asg11
L23852315L
sg12
(lp1861
VNHS
p1862
aVyes
p1863
aVhgv
p1864
aVno
p1865
aVref
p1866
aVUS 41
p1867
aVname
p1868
aVNorth Lake Shore Drive
p1869
aVlanes
p1870
aV4
p1871
aVlayer
p1872
aV1
p1873
aVbridge
p1874
aVyes
p1875
aVoneway
p1876
aVyes
p1877
aVhighway
p1878
aVtrunk
p1879
asbag1
(g2
g3
Ntp1880
Rp1881
(dp1882
g7
(lp1883
L258486554L
aL271135088L
aL257110496L
aL271135089L
aL258486339L
asg9
(lp1884
I17
aI17
asg11
L23852325L
sg12
(lp1885
VNHS
p1886
aVyes
p1887
aVhgv
p1888
aVno
p1889
aVref
p1890
aVUS 41
p1891
aVname
p1892
aVNorth Lake Shore Drive
p1893
aVlanes
p1894
aV4
p1895
aVoneway
p1896
aVyes
p1897
aVhighway
p1898
aVtrunk
p1899
asbag1
(g2
g3
Ntp1900
Rp1901
(dp1902
g7
(lp1903
L258486662L
aL26794475L
asg9
(lp1904
I17
aI17
asg11
L23852332L
sg12
(lp1905
VNHS
p1906
aVyes
p1907
aVhgv
p1908
aVno
p1909
aVref
p1910
aVUS 41
p1911
aVname
p1912
aVNorth Lake Shore Drive
p1913
aVlanes
p1914
aV4
p1915
aVlayer
p1916
aV1
p1917
aVbridge
p1918
aVyes
p1919
aVoneway
p1920
aVyes
p1921
aVhighway
p1922
aVtrunk
p1923
asbag1
(g2
g3
Ntp1924
Rp1925
(dp1926
g7
(lp1927
L258486782L
aL339269359L
aL26794467L
aL26794468L
aL26794474L
aL258486763L
aL258486764L
aL258486662L
asg9
(lp1928
I17
aI17
asg11
L30679326L
sg12
(lp1929
VNHS
p1930
aVyes
p1931
aVhgv
p1932
aVno
p1933
aVref
p1934
aVUS 41
p1935
aVname
p1936
aVNorth Lake Shore Drive
p1937
aVlanes
p1938
aV4
p1939
aVoneway
p1940
aVyes
p1941
aVhighway
p1942
aVtrunk
p1943
asbag1
(g2
g3
Ntp1944
Rp1945
(dp1946
g7
(lp1947
L258486782L
aL339269359L
aL26794467L
aL26794468L
aL26794474L
aL258486763L
aL258486764L
aL258486662L
asg9
(lp1948
I17
aI17
asg11
L30679326L
sg12
(lp1949
VNHS
p1950
aVyes
p1951
aVhgv
p1952
aVno
p1953
aVref
p1954
aVUS 41
p1955
aVname
p1956
aVNorth Lake Shore Drive
p1957
aVlanes
p1958
aV4
p1959
aVoneway
p1960
aVyes
p1961
aVhighway
p1962
aVtrunk
p1963
asbag1
(g2
g3
Ntp1964
Rp1965
(dp1966
g7
(lp1967
L258486782L
aL339269359L
aL26794467L
aL26794468L
aL26794474L
aL258486763L
aL258486764L
aL258486662L
asg9
(lp1968
I17
aI17
asg11
L30679326L
sg12
(lp1969
VNHS
p1970
aVyes
p1971
aVhgv
p1972
aVno
p1973
aVref
p1974
aVUS 41
p1975
aVname
p1976
aVNorth Lake Shore Drive
p1977
aVlanes
p1978
aV4
p1979
aVoneway
p1980
aVyes
p1981
aVhighway
p1982
aVtrunk
p1983
asbag1
(g2
g3
Ntp1984
Rp1985
(dp1986
g7
(lp1987
L26794430L
aL258487034L
aL26794431L
aL258487035L
aL257971135L
aL258487036L
aL26794437L
aL26794438L
aL26794441L
aL257150442L
aL26794442L
aL26794443L
aL26794444L
aL26794445L
aL26794447L
aL26794449L
asg9
(lp1988
I17
aI17
asg11
L23852354L
sg12
(lp1989
VNHS
p1990
aVyes
p1991
aVhgv
p1992
aVno
p1993
aVref
p1994
aVUS 41
p1995
aVname
p1996
aVNorth Lake Shore Drive
p1997
aVlanes
p1998
aV4
p1999
aVoneway
p2000
aVyes
p2001
aVhighway
p2002
aVtrunk
p2003
asbag1
(g2
g3
Ntp2004
Rp2005
(dp2006
g7
(lp2007
L26794430L
aL258487034L
aL26794431L
aL258487035L
aL257971135L
aL258487036L
aL26794437L
aL26794438L
aL26794441L
aL257150442L
aL26794442L
aL26794443L
aL26794444L
aL26794445L
aL26794447L
aL26794449L
asg9
(lp2008
I17
aI17
asg11
L23852354L
sg12
(lp2009
VNHS
p2010
aVyes
p2011
aVhgv
p2012
aVno
p2013
aVref
p2014
aVUS 41
p2015
aVname
p2016
aVNorth Lake Shore Drive
p2017
aVlanes
p2018
aV4
p2019
aVoneway
p2020
aVyes
p2021
aVhighway
p2022
aVtrunk
p2023
asbag1
(g2
g3
Ntp2024
Rp2025
(dp2026
g7
(lp2027
L26794430L
aL258487034L
aL26794431L
aL258487035L
aL257971135L
aL258487036L
aL26794437L
aL26794438L
aL26794441L
aL257150442L
aL26794442L
aL26794443L
aL26794444L
aL26794445L
aL26794447L
aL26794449L
asg9
(lp2028
I17
aI17
asg11
L23852354L
sg12
(lp2029
VNHS
p2030
aVyes
p2031
aVhgv
p2032
aVno
p2033
aVref
p2034
aVUS 41
p2035
aVname
p2036
aVNorth Lake Shore Drive
p2037
aVlanes
p2038
aV4
p2039
aVoneway
p2040
aVyes
p2041
aVhighway
p2042
aVtrunk
p2043
asbag1
(g2
g3
Ntp2044
Rp2045
(dp2046
g7
(lp2047
L258487313L
aL26794402L
asg9
(lp2048
I17
aI17
asg11
L23852377L
sg12
(lp2049
VNHS
p2050
aVyes
p2051
aVhgv
p2052
aVno
p2053
aVref
p2054
aVUS 41
p2055
aVname
p2056
aVNorth Lake Shore Drive
p2057
aVlanes
p2058
aV4
p2059
aVlayer
p2060
aV1
p2061
aVbridge
p2062
aVyes
p2063
aVoneway
p2064
aVyes
p2065
aVhighway
p2066
aVtrunk
p2067
aVmaxspeed
p2068
aV40 mph
p2069
asbag1
(g2
g3
Ntp2070
Rp2071
(dp2072
g7
(lp2073
L258487661L
aL258487700L
aL258487701L
aL258487702L
aL258487384L
aL258487385L
aL26794400L
aL26794401L
aL258487313L
asg9
(lp2074
I17
aI17
asg11
L4388611L
sg12
(lp2075
VNHS
p2076
aVyes
p2077
aVhgv
p2078
aVno
p2079
aVlit
p2080
aVyes
p2081
aVref
p2082
aVUS 41
p2083
aVname
p2084
aVNorth Lake Shore Drive
p2085
aVlanes
p2086
aV4
p2087
aVoneway
p2088
aVyes
p2089
aVhighway
p2090
aVtrunk
p2091
aVmaxspeed
p2092
aV40 mph
p2093
asbag1
(g2
g3
Ntp2094
Rp2095
(dp2096
g7
(lp2097
L258487661L
aL258487700L
aL258487701L
aL258487702L
aL258487384L
aL258487385L
aL26794400L
aL26794401L
aL258487313L
asg9
(lp2098
I17
aI17
asg11
L4388611L
sg12
(lp2099
VNHS
p2100
aVyes
p2101
aVhgv
p2102
aVno
p2103
aVlit
p2104
aVyes
p2105
aVref
p2106
aVUS 41
p2107
aVname
p2108
aVNorth Lake Shore Drive
p2109
aVlanes
p2110
aV4
p2111
aVoneway
p2112
aVyes
p2113
aVhighway
p2114
aVtrunk
p2115
aVmaxspeed
p2116
aV40 mph
p2117
asbag1
(g2
g3
Ntp2118
Rp2119
(dp2120
g7
(lp2121
L258487660L
aL258487661L
asg9
(lp2122
I17
aI17
asg11
L23852420L
sg12
(lp2123
VNHS
p2124
aVyes
p2125
aVhgv
p2126
aVno
p2127
aVlit
p2128
aVyes
p2129
aVref
p2130
aVUS 41
p2131
aVname
p2132
aVNorth Lake Shore Drive
p2133
aVlanes
p2134
aV4
p2135
aVlayer
p2136
aV1
p2137
aVbridge
p2138
aVyes
p2139
aVoneway
p2140
aVyes
p2141
aVhighway
p2142
aVtrunk
p2143
asbag1
(g2
g3
Ntp2144
Rp2145
(dp2146
g7
(lp2147
L258487661L
aL258487700L
aL258487701L
aL258487702L
aL258487384L
aL258487385L
aL26794400L
aL26794401L
aL258487313L
asg9
(lp2148
I17
aI17
asg11
L4388611L
sg12
(lp2149
VNHS
p2150
aVyes
p2151
aVhgv
p2152
aVno
p2153
aVlit
p2154
aVyes
p2155
aVref
p2156
aVUS 41
p2157
aVname
p2158
aVNorth Lake Shore Drive
p2159
aVlanes
p2160
aV4
p2161
aVoneway
p2162
aVyes
p2163
aVhighway
p2164
aVtrunk
p2165
aVmaxspeed
p2166
aV40 mph
p2167
asbag1
(g2
g3
Ntp2168
Rp2169
(dp2170
g7
(lp2171
L258487661L
aL258487700L
aL258487701L
aL258487702L
aL258487384L
aL258487385L
aL26794400L
aL26794401L
aL258487313L
asg9
(lp2172
I17
aI17
asg11
L4388611L
sg12
(lp2173
VNHS
p2174
aVyes
p2175
aVhgv
p2176
aVno
p2177
aVlit
p2178
aVyes
p2179
aVref
p2180
aVUS 41
p2181
aVname
p2182
aVNorth Lake Shore Drive
p2183
aVlanes
p2184
aV4
p2185
aVoneway
p2186
aVyes
p2187
aVhighway
p2188
aVtrunk
p2189
aVmaxspeed
p2190
aV40 mph
p2191
asbag1
(g2
g3
Ntp2192
Rp2193
(dp2194
g7
(lp2195
L258487661L
aL258487700L
aL258487701L
aL258487702L
aL258487384L
aL258487385L
aL26794400L
aL26794401L
aL258487313L
asg9
(lp2196
I17
aI17
asg11
L4388611L
sg12
(lp2197
VNHS
p2198
aVyes
p2199
aVhgv
p2200
aVno
p2201
aVlit
p2202
aVyes
p2203
aVref
p2204
aVUS 41
p2205
aVname
p2206
aVNorth Lake Shore Drive
p2207
aVlanes
p2208
aV4
p2209
aVoneway
p2210
aVyes
p2211
aVhighway
p2212
aVtrunk
p2213
aVmaxspeed
p2214
aV40 mph
p2215
asbag1
(g2
g3
Ntp2216
Rp2217
(dp2218
g7
(lp2219
L258487661L
aL258487700L
aL258487701L
aL258487702L
aL258487384L
aL258487385L
aL26794400L
aL26794401L
aL258487313L
asg9
(lp2220
I17
aI17
asg11
L4388611L
sg12
(lp2221
VNHS
p2222
aVyes
p2223
aVhgv
p2224
aVno
p2225
aVlit
p2226
aVyes
p2227
aVref
p2228
aVUS 41
p2229
aVname
p2230
aVNorth Lake Shore Drive
p2231
aVlanes
p2232
aV4
p2233
aVoneway
p2234
aVyes
p2235
aVhighway
p2236
aVtrunk
p2237
aVmaxspeed
p2238
aV40 mph
p2239
asbag1
(g2
g3
Ntp2240
Rp2241
(dp2242
g7
(lp2243
L258487920L
aL250755898L
aL26098161L
aL258487910L
aL26098162L
aL26098164L
aL26098165L
aL26098166L
asg9
(lp2244
I17
aI17
asg11
L23852447L
sg12
(lp2245
VNHS
p2246
aVyes
p2247
aVhgv
p2248
aVno
p2249
aVlit
p2250
aVyes
p2251
aVref
p2252
aVUS 41
p2253
aVname
p2254
aVNorth Lake Shore Drive
p2255
aVlanes
p2256
aV4
p2257
aVoneway
p2258
aVyes
p2259
aVhighway
p2260
aVtrunk
p2261
asbag1
(g2
g3
Ntp2262
Rp2263
(dp2264
g7
(lp2265
L258487920L
aL250755898L
aL26098161L
aL258487910L
aL26098162L
aL26098164L
aL26098165L
aL26098166L
asg9
(lp2266
I17
aI17
asg11
L23852447L
sg12
(lp2267
VNHS
p2268
aVyes
p2269
aVhgv
p2270
aVno
p2271
aVlit
p2272
aVyes
p2273
aVref
p2274
aVUS 41
p2275
aVname
p2276
aVNorth Lake Shore Drive
p2277
aVlanes
p2278
aV4
p2279
aVoneway
p2280
aVyes
p2281
aVhighway
p2282
aVtrunk
p2283
asbag1
(g2
g3
Ntp2284
Rp2285
(dp2286
g7
(lp2287
L258957360L
aL2393971333L
aL2423721320L
aL2423717292L
aL27446500L
asg9
(lp2288
I8
aI8
asg11
L230975353L
sg12
(lp2289
Vname
p2290
aVNorth Michigan Avenue
p2291
aVlayer
p2292
aV1
p2293
aVoneway
p2294
aVyes
p2295
aVhighway
p2296
aVprimary
p2297
aVloc_ref
p2298
aV100 E
p2299
asbag1
(g2
g3
Ntp2300
Rp2301
(dp2302
g7
(lp2303
L258958980L
aL4156112537L
aL740271864L
aL2391131208L
aL740271865L
aL740271866L
aL258957360L
asg9
(lp2304
I7
aI7
asg11
L145846237L
sg12
(lp2305
Vname
p2306
aVNorth Michigan Avenue
p2307
aVoneway
p2308
aVyes
p2309
aVhighway
p2310
aVprimary
p2311
aVloc_ref
p2312
aV100 E
p2313
asbag1
(g2
g3
Ntp2314
Rp2315
(dp2316
g7
(lp2317
L713311573L
aL258964044L
aL258964045L
asg9
(lp2318
I17
aI17
asg11
L57377095L
sg12
(lp2319
Vhgv
p2320
aVno
p2321
aVoneway
p2322
aVyes
p2323
aVhighway
p2324
aVtrunk_link
p2325
aVtiger:cfcc
p2326
aVA41
p2327
aVtiger:county
p2328
aVCook, IL
p2329
aVtiger:reviewed
p2330
aVno
p2331
aVtiger:zip_left
p2332
aV60611
p2333
aVtiger:name_base
p2334
aVOak
p2335
aVtiger:name_type
p2336
aVSt
p2337
aVtiger:zip_right
p2338
aV60611
p2339
aVtiger:name_direction_prefix
p2340
aVE
p2341
asbag1
(g2
g3
Ntp2342
Rp2343
(dp2344
g7
(lp2345
L258964045L
aL258964048L
aL713315937L
aL713315938L
aL258964049L
asg9
(lp2346
I17
aI17
asg11
L23891533L
sg12
(lp2347
Vhgv
p2348
aVno
p2349
aVlayer
p2350
aV-1
p2351
aVoneway
p2352
aVyes
p2353
aVtunnel
p2354
aVyes
p2355
aVhighway
p2356
aVtrunk_link
p2357
aVtiger:cfcc
p2358
aVA41
p2359
aVtiger:county
p2360
aVCook, IL
p2361
aVtiger:reviewed
p2362
aVno
p2363
aVtiger:zip_left
p2364
aV60611
p2365
aVtiger:name_base
p2366
aVOak
p2367
aVtiger:name_type
p2368
aVSt
p2369
aVtiger:zip_right
p2370
aV60611
p2371
aVtiger:name_direction_prefix
p2372
aVE
p2373
asbag1
(g2
g3
Ntp2374
Rp2375
(dp2376
g7
(lp2377
L258964045L
aL258964048L
aL713315937L
aL713315938L
aL258964049L
asg9
(lp2378
I17
aI17
asg11
L23891533L
sg12
(lp2379
Vhgv
p2380
aVno
p2381
aVlayer
p2382
aV-1
p2383
aVoneway
p2384
aVyes
p2385
aVtunnel
p2386
aVyes
p2387
aVhighway
p2388
aVtrunk_link
p2389
aVtiger:cfcc
p2390
aVA41
p2391
aVtiger:county
p2392
aVCook, IL
p2393
aVtiger:reviewed
p2394
aVno
p2395
aVtiger:zip_left
p2396
aV60611
p2397
aVtiger:name_base
p2398
aVOak
p2399
aVtiger:name_type
p2400
aVSt
p2401
aVtiger:zip_right
p2402
aV60611
p2403
aVtiger:name_direction_prefix
p2404
aVE
p2405
asbag1
(g2
g3
Ntp2406
Rp2407
(dp2408
g7
(lp2409
L258964049L
aL739097230L
aL739097233L
aL739097237L
aL739097239L
aL739097242L
aL739097245L
aL739097248L
aL739097251L
aL739097254L
aL739097256L
aL739097259L
aL739097263L
aL739097268L
asg9
(lp2410
I17
aI17
asg11
L23891544L
sg12
(lp2411
Vhgv
p2412
aVno
p2413
aVoneway
p2414
aVyes
p2415
aVhighway
p2416
aVtrunk_link
p2417
asbag1
(g2
g3
Ntp2418
Rp2419
(dp2420
g7
(lp2421
L258965972L
aL3191766673L
aL3918786383L
aL3191766669L
aL272213455L
aL3191766667L
aL3191766379L
aL261161069L
aL3191766375L
aL3191766373L
aL27440483L
aL3191766369L
aL713334461L
aL713334462L
aL736864188L
aL3191766367L
aL27440482L
asg9
(lp2422
I13
aI13
asg11
L255369389L
sg12
(lp2423
Vname
p2424
aVNorth Michigan Avenue
p2425
aVoneway
p2426
aVyes
p2427
aVhighway
p2428
aVprimary
p2429
asbag1
(g2
g3
Ntp2430
Rp2431
(dp2432
g7
(lp2433
L260080588L
aL260080589L
asg9
(lp2434
I17
aI17
asg11
L23987646L
sg12
(lp2435
VNHS
p2436
aVyes
p2437
aVhgv
p2438
aVno
p2439
aVref
p2440
aVUS 41
p2441
aVname
p2442
aVNorth Lake Shore Drive
p2443
aVlanes
p2444
aV4
p2445
aVlayer
p2446
aV1
p2447
aVbridge
p2448
aVyes
p2449
aVoneway
p2450
aVyes
p2451
aVhighway
p2452
aVtrunk
p2453
asbag1
(g2
g3
Ntp2454
Rp2455
(dp2456
g7
(lp2457
L260080589L
aL26794425L
asg9
(lp2458
I17
aI17
asg11
L317622786L
sg12
(lp2459
VNHS
p2460
aVyes
p2461
aVhgv
p2462
aVno
p2463
aVref
p2464
aVUS 41
p2465
aVname
p2466
aVNorth Lake Shore Drive
p2467
aVlanes
p2468
aV4
p2469
aVoneway
p2470
aVyes
p2471
aVhighway
p2472
aVtrunk
p2473
asbag1
(g2
g3
Ntp2474
Rp2475
(dp2476
g7
(lp2477
L261289106L
aL261117414L
asg9
(lp2478
I38
aI38
asg11
L313290861L
sg12
(lp2479
Vname
p2480
aVNorth Sheridan Road
p2481
aVlanes
p2482
aV2
p2483
aVoneway
p2484
aVno
p2485
aVhighway
p2486
aVprimary
p2487
asbag1
(g2
g3
Ntp2488
Rp2489
(dp2490
g7
(lp2491
L261146197L
aL261265643L
aL261308247L
aL261118345L
aL1752618573L
aL261267391L
aL261325497L
aL261280502L
aL261293538L
aL261325493L
aL261289106L
asg9
(lp2492
I45
aI45
asg11
L317625746L
sg12
(lp2493
Vname
p2494
aVNorth Sheridan Road
p2495
aVlanes
p2496
aV2
p2497
aVoneway
p2498
aVno
p2499
aVhighway
p2500
aVprimary
p2501
asbag1
(g2
g3
Ntp2502
Rp2503
(dp2504
g7
(lp2505
L712839669L
aL712839675L
aL712839674L
aL1293577386L
aL261146197L
asg9
(lp2506
I47
aI47
asg11
L317625745L
sg12
(lp2507
Vname
p2508
aVWest Howard Street
p2509
aVlayer
p2510
aV0
p2511
aVhighway
p2512
aVsecondary
p2513
aVloc_ref
p2514
aV7600 N
p2515
aVsidewalk
p2516
aVboth
p2517
asbag1
(g2
g3
Ntp2518
Rp2519
(dp2520
g7
(lp2521
L258965972L
aL3191766673L
aL3918786383L
aL3191766669L
aL272213455L
aL3191766667L
aL3191766379L
aL261161069L
aL3191766375L
aL3191766373L
aL27440483L
aL3191766369L
aL713334461L
aL713334462L
aL736864188L
aL3191766367L
aL27440482L
asg9
(lp2522
I14
aI14
asg11
L255369389L
sg12
(lp2523
Vname
p2524
aVNorth Michigan Avenue
p2525
aVoneway
p2526
aVyes
p2527
aVhighway
p2528
aVprimary
p2529
asbag1
(g2
g3
Ntp2530
Rp2531
(dp2532
g7
(lp2533
L261117414L
aL2226564929L
aL261226270L
aL261198152L
aL261242504L
aL261325492L
aL261294461L
aL261325491L
aL1257572572L
aL2206053604L
aL261325501L
aL2226676801L
aL3242152385L
aL102825447L
asg9
(lp2534
I36
aI38
asg11
L313291438L
sg12
(lp2535
Vname
p2536
aVNorth Sheridan Road
p2537
aVlanes
p2538
aV2
p2539
aVoneway
p2540
aVno
p2541
aVhighway
p2542
aVprimary
p2543
asbag1
(g2
g3
Ntp2544
Rp2545
(dp2546
g7
(lp2547
L261146197L
aL261265643L
aL261308247L
aL261118345L
aL1752618573L
aL261267391L
aL261325497L
aL261280502L
aL261293538L
aL261325493L
aL261289106L
asg9
(lp2548
I47
aI47
asg11
L317625746L
sg12
(lp2549
Vname
p2550
aVNorth Sheridan Road
p2551
aVlanes
p2552
aV2
p2553
aVoneway
p2554
aVno
p2555
aVhighway
p2556
aVprimary
p2557
asbag1
(g2
g3
Ntp2558
Rp2559
(dp2560
g7
(lp2561
L261146197L
aL261265643L
aL261308247L
aL261118345L
aL1752618573L
aL261267391L
aL261325497L
aL261280502L
aL261293538L
aL261325493L
aL261289106L
asg9
(lp2562
I44
aI45
asg11
L317625746L
sg12
(lp2563
Vname
p2564
aVNorth Sheridan Road
p2565
aVlanes
p2566
aV2
p2567
aVoneway
p2568
aVno
p2569
aVhighway
p2570
aVprimary
p2571
asbag1
(g2
g3
Ntp2572
Rp2573
(dp2574
g7
(lp2575
L261146197L
aL261265643L
aL261308247L
aL261118345L
aL1752618573L
aL261267391L
aL261325497L
aL261280502L
aL261293538L
aL261325493L
aL261289106L
asg9
(lp2576
I42
aI42
asg11
L317625746L
sg12
(lp2577
Vname
p2578
aVNorth Sheridan Road
p2579
aVlanes
p2580
aV2
p2581
aVoneway
p2582
aVno
p2583
aVhighway
p2584
aVprimary
p2585
asbag1
(g2
g3
Ntp2586
Rp2587
(dp2588
g7
(lp2589
L261146197L
aL261265643L
aL261308247L
aL261118345L
aL1752618573L
aL261267391L
aL261325497L
aL261280502L
aL261293538L
aL261325493L
aL261289106L
asg9
(lp2590
I38
aI39
asg11
L317625746L
sg12
(lp2591
Vname
p2592
aVNorth Sheridan Road
p2593
aVlanes
p2594
aV2
p2595
aVoneway
p2596
aVno
p2597
aVhighway
p2598
aVprimary
p2599
asbag1
(g2
g3
Ntp2600
Rp2601
(dp2602
g7
(lp2603
L261146197L
aL261265643L
aL261308247L
aL261118345L
aL1752618573L
aL261267391L
aL261325497L
aL261280502L
aL261293538L
aL261325493L
aL261289106L
asg9
(lp2604
I41
aI42
asg11
L317625746L
sg12
(lp2605
Vname
p2606
aVNorth Sheridan Road
p2607
aVlanes
p2608
aV2
p2609
aVoneway
p2610
aVno
p2611
aVhighway
p2612
aVprimary
p2613
asbag1
(g2
g3
Ntp2614
Rp2615
(dp2616
g7
(lp2617
L261117414L
aL2226564929L
aL261226270L
aL261198152L
aL261242504L
aL261325492L
aL261294461L
aL261325491L
aL1257572572L
aL2206053604L
aL261325501L
aL2226676801L
aL3242152385L
aL102825447L
asg9
(lp2618
I35
aI35
asg11
L313291438L
sg12
(lp2619
Vname
p2620
aVNorth Sheridan Road
p2621
aVlanes
p2622
aV2
p2623
aVoneway
p2624
aVno
p2625
aVhighway
p2626
aVprimary
p2627
asbag1
(g2
g3
Ntp2628
Rp2629
(dp2630
g7
(lp2631
L261146197L
aL261265643L
aL261308247L
aL261118345L
aL1752618573L
aL261267391L
aL261325497L
aL261280502L
aL261293538L
aL261325493L
aL261289106L
asg9
(lp2632
I45
aI47
asg11
L317625746L
sg12
(lp2633
Vname
p2634
aVNorth Sheridan Road
p2635
aVlanes
p2636
aV2
p2637
aVoneway
p2638
aVno
p2639
aVhighway
p2640
aVprimary
p2641
asbag1
(g2
g3
Ntp2642
Rp2643
(dp2644
g7
(lp2645
L261117414L
aL2226564929L
aL261226270L
aL261198152L
aL261242504L
aL261325492L
aL261294461L
aL261325491L
aL1257572572L
aL2206053604L
aL261325501L
aL2226676801L
aL3242152385L
aL102825447L
asg9
(lp2646
I35
aI36
asg11
L313291438L
sg12
(lp2647
Vname
p2648
aVNorth Sheridan Road
p2649
aVlanes
p2650
aV2
p2651
aVoneway
p2652
aVno
p2653
aVhighway
p2654
aVprimary
p2655
asbag1
(g2
g3
Ntp2656
Rp2657
(dp2658
g7
(lp2659
L261146197L
aL261265643L
aL261308247L
aL261118345L
aL1752618573L
aL261267391L
aL261325497L
aL261280502L
aL261293538L
aL261325493L
aL261289106L
asg9
(lp2660
I39
aI41
asg11
L317625746L
sg12
(lp2661
Vname
p2662
aVNorth Sheridan Road
p2663
aVlanes
p2664
aV2
p2665
aVoneway
p2666
aVno
p2667
aVhighway
p2668
aVprimary
p2669
asbag1
(g2
g3
Ntp2670
Rp2671
(dp2672
g7
(lp2673
L261146197L
aL261265643L
aL261308247L
aL261118345L
aL1752618573L
aL261267391L
aL261325497L
aL261280502L
aL261293538L
aL261325493L
aL261289106L
asg9
(lp2674
I42
aI44
asg11
L317625746L
sg12
(lp2675
Vname
p2676
aVNorth Sheridan Road
p2677
aVlanes
p2678
aV2
p2679
aVoneway
p2680
aVno
p2681
aVhighway
p2682
aVprimary
p2683
asbag1
(g2
g3
Ntp2684
Rp2685
(dp2686
g7
(lp2687
L261117414L
aL2226564929L
aL261226270L
aL261198152L
aL261242504L
aL261325492L
aL261294461L
aL261325491L
aL1257572572L
aL2206053604L
aL261325501L
aL2226676801L
aL3242152385L
aL102825447L
asg9
(lp2688
I33
aI34
asg11
L313291438L
sg12
(lp2689
Vname
p2690
aVNorth Sheridan Road
p2691
aVlanes
p2692
aV2
p2693
aVoneway
p2694
aVno
p2695
aVhighway
p2696
aVprimary
p2697
asbag1
(g2
g3
Ntp2698
Rp2699
(dp2700
g7
(lp2701
L250278912L
aL262077310L
aL2642873515L
aL286900245L
aL286900249L
aL2328702573L
aL4069458195L
aL286900268L
aL2328702613L
aL2328702688L
aL1257584223L
aL286900184L
aL1844566211L
aL286900185L
aL1844566113L
aL286900186L
aL286900187L
aL1844566159L
aL2206162371L
aL2174877698L
aL286900188L
aL339269476L
aL1610885999L
aL339269514L
aL2174877452L
aL424329169L
aL2206168484L
aL102825447L
asg9
(lp2702
I25
aI25
asg11
L57355727L
sg12
(lp2703
Vname
p2704
aVNorth Sheridan Road
p2705
aVlanes
p2706
aV2
p2707
aVoneway
p2708
aVno
p2709
aVhighway
p2710
aVprimary
p2711
asbag1
(g2
g3
Ntp2712
Rp2713
(dp2714
g7
(lp2715
L269446279L
aL3191763964L
aL3322926164L
aL3191763961L
aL269446278L
aL3191762972L
aL3191762970L
aL269446277L
aL3191762968L
aL3191762965L
aL269446276L
aL269446293L
asg9
(lp2716
I16
aI16
asg11
L316912739L
sg12
(lp2717
Vname
p2718
aVNorth Michigan Avenue
p2719
aVoneway
p2720
aV-1
p2721
aVhighway
p2722
aVprimary
p2723
asbag1
(g2
g3
Ntp2724
Rp2725
(dp2726
g7
(lp2727
L269446279L
aL3191763966L
aL713334251L
aL736864162L
aL3191766364L
aL269446281L
aL3191766361L
aL713334252L
aL736864163L
aL736864164L
aL2812430206L
aL269446280L
asg9
(lp2728
I14
aI14
asg11
L57377327L
sg12
(lp2729
Vname
p2730
aVNorth Michigan Avenue
p2731
aVoneway
p2732
aVyes
p2733
aVhighway
p2734
aVprimary
p2735
asbag1
(g2
g3
Ntp2736
Rp2737
(dp2738
g7
(lp2739
L269446292L
aL257164338L
aL740365207L
aL258932582L
aL739118994L
aL1564550904L
aL4208769282L
aL258958980L
aL271183109L
aL269446282L
aL27446502L
aL269446292L
asg9
(lp2740
I9
aI9
asg11
L377619093L
sg12
(lp2741
Varea
p2742
aVyes
p2743
asbag1
(g2
g3
Ntp2744
Rp2745
(dp2746
g7
(lp2747
L269446292L
aL740363360L
aL740363361L
aL740363362L
aL2819167158L
aL269446285L
asg9
(lp2748
I9
aI9
asg11
L48785123L
sg12
(lp2749
Vname
p2750
aVNorth Michigan Avenue
p2751
aVlayer
p2752
aV1
p2753
aVoneway
p2754
aVyes
p2755
aVhighway
p2756
aVprimary
p2757
aVloc_ref
p2758
aV100 E
p2759
asbag1
(g2
g3
Ntp2760
Rp2761
(dp2762
g7
(lp2763
L258486554L
aL271135088L
aL257110496L
aL271135089L
aL258486339L
asg9
(lp2764
I17
aI17
asg11
L23852325L
sg12
(lp2765
VNHS
p2766
aVyes
p2767
aVhgv
p2768
aVno
p2769
aVref
p2770
aVUS 41
p2771
aVname
p2772
aVNorth Lake Shore Drive
p2773
aVlanes
p2774
aV4
p2775
aVoneway
p2776
aVyes
p2777
aVhighway
p2778
aVtrunk
p2779
asbag1
(g2
g3
Ntp2780
Rp2781
(dp2782
g7
(lp2783
L258486554L
aL271135088L
aL257110496L
aL271135089L
aL258486339L
asg9
(lp2784
I17
aI17
asg11
L23852325L
sg12
(lp2785
VNHS
p2786
aVyes
p2787
aVhgv
p2788
aVno
p2789
aVref
p2790
aVUS 41
p2791
aVname
p2792
aVNorth Lake Shore Drive
p2793
aVlanes
p2794
aV4
p2795
aVoneway
p2796
aVyes
p2797
aVhighway
p2798
aVtrunk
p2799
asbag1
(g2
g3
Ntp2800
Rp2801
(dp2802
g7
(lp2803
L739097268L
aL739097559L
aL739101922L
aL739101923L
aL26098153L
aL739101924L
aL739101925L
aL250755885L
aL26098155L
aL26098157L
aL4075955311L
aL271146941L
aL4075955310L
aL26098158L
aL26098159L
asg9
(lp2804
I17
aI17
asg11
L317622794L
sg12
(lp2805
VNHS
p2806
aVyes
p2807
aVhgv
p2808
aVno
p2809
aVref
p2810
aVUS 41
p2811
aVname
p2812
aVNorth Lake Shore Drive
p2813
aVlanes
p2814
aV4
p2815
aVoneway
p2816
aVyes
p2817
aVhighway
p2818
aVtrunk
p2819
asbag1
(g2
g3
Ntp2820
Rp2821
(dp2822
g7
(lp2823
L3884752869L
aL931259982L
aL931259976L
aL271175339L
aL619647952L
aL3257711547L
aL3257711546L
aL27721250L
asg9
(lp2824
I11
aI12
asg11
L79785857L
sg12
(lp2825
Vname
p2826
aVNorth Michigan Avenue
p2827
aVlayer
p2828
aV1
p2829
aVoneway
p2830
aVyes
p2831
aVhighway
p2832
aVprimary
p2833
aVloc_ref
p2834
aV100 E
p2835
asbag1
(g2
g3
Ntp2836
Rp2837
(dp2838
g7
(lp2839
L258965972L
aL3191766673L
aL3918786383L
aL3191766669L
aL272213455L
aL3191766667L
aL3191766379L
aL261161069L
aL3191766375L
aL3191766373L
aL27440483L
aL3191766369L
aL713334461L
aL713334462L
aL736864188L
aL3191766367L
aL27440482L
asg9
(lp2840
I13
aI13
asg11
L255369389L
sg12
(lp2841
Vname
p2842
aVNorth Michigan Avenue
p2843
aVoneway
p2844
aVyes
p2845
aVhighway
p2846
aVprimary
p2847
asbag1
(g2
g3
Ntp2848
Rp2849
(dp2850
g7
(lp2851
L272350581L
aL258958980L
asg9
(lp2852
I7
aI7
asg11
L294840198L
sg12
(lp2853
Vname
p2854
aVNorth Michigan Avenue
p2855
aVoneway
p2856
aVyes
p2857
aVhighway
p2858
aVprimary
p2859
aVloc_ref
p2860
aV100 E
p2861
aVsidewalk
p2862
aVright
p2863
asbag1
(g2
g3
Ntp2864
Rp2865
(dp2866
g7
(lp2867
L250278912L
aL262077310L
aL2642873515L
aL286900245L
aL286900249L
aL2328702573L
aL4069458195L
aL286900268L
aL2328702613L
aL2328702688L
aL1257584223L
aL286900184L
aL1844566211L
aL286900185L
aL1844566113L
aL286900186L
aL286900187L
aL1844566159L
aL2206162371L
aL2174877698L
aL286900188L
aL339269476L
aL1610885999L
aL339269514L
aL2174877452L
aL424329169L
aL2206168484L
aL102825447L
asg9
(lp2868
I30
aI30
asg11
L57355727L
sg12
(lp2869
Vname
p2870
aVNorth Sheridan Road
p2871
aVlanes
p2872
aV2
p2873
aVoneway
p2874
aVno
p2875
aVhighway
p2876
aVprimary
p2877
asbag1
(g2
g3
Ntp2878
Rp2879
(dp2880
g7
(lp2881
L250278912L
aL262077310L
aL2642873515L
aL286900245L
aL286900249L
aL2328702573L
aL4069458195L
aL286900268L
aL2328702613L
aL2328702688L
aL1257584223L
aL286900184L
aL1844566211L
aL286900185L
aL1844566113L
aL286900186L
aL286900187L
aL1844566159L
aL2206162371L
aL2174877698L
aL286900188L
aL339269476L
aL1610885999L
aL339269514L
aL2174877452L
aL424329169L
aL2206168484L
aL102825447L
asg9
(lp2882
I30
aI30
asg11
L57355727L
sg12
(lp2883
Vname
p2884
aVNorth Sheridan Road
p2885
aVlanes
p2886
aV2
p2887
aVoneway
p2888
aVno
p2889
aVhighway
p2890
aVprimary
p2891
asbag1
(g2
g3
Ntp2892
Rp2893
(dp2894
g7
(lp2895
L250278912L
aL262077310L
aL2642873515L
aL286900245L
aL286900249L
aL2328702573L
aL4069458195L
aL286900268L
aL2328702613L
aL2328702688L
aL1257584223L
aL286900184L
aL1844566211L
aL286900185L
aL1844566113L
aL286900186L
aL286900187L
aL1844566159L
aL2206162371L
aL2174877698L
aL286900188L
aL339269476L
aL1610885999L
aL339269514L
aL2174877452L
aL424329169L
aL2206168484L
aL102825447L
asg9
(lp2896
I30
aI30
asg11
L57355727L
sg12
(lp2897
Vname
p2898
aVNorth Sheridan Road
p2899
aVlanes
p2900
aV2
p2901
aVoneway
p2902
aVno
p2903
aVhighway
p2904
aVprimary
p2905
asbag1
(g2
g3
Ntp2906
Rp2907
(dp2908
g7
(lp2909
L250278912L
aL262077310L
aL2642873515L
aL286900245L
aL286900249L
aL2328702573L
aL4069458195L
aL286900268L
aL2328702613L
aL2328702688L
aL1257584223L
aL286900184L
aL1844566211L
aL286900185L
aL1844566113L
aL286900186L
aL286900187L
aL1844566159L
aL2206162371L
aL2174877698L
aL286900188L
aL339269476L
aL1610885999L
aL339269514L
aL2174877452L
aL424329169L
aL2206168484L
aL102825447L
asg9
(lp2910
I30
aI30
asg11
L57355727L
sg12
(lp2911
Vname
p2912
aVNorth Sheridan Road
p2913
aVlanes
p2914
aV2
p2915
aVoneway
p2916
aVno
p2917
aVhighway
p2918
aVprimary
p2919
asbag1
(g2
g3
Ntp2920
Rp2921
(dp2922
g7
(lp2923
L250278912L
aL262077310L
aL2642873515L
aL286900245L
aL286900249L
aL2328702573L
aL4069458195L
aL286900268L
aL2328702613L
aL2328702688L
aL1257584223L
aL286900184L
aL1844566211L
aL286900185L
aL1844566113L
aL286900186L
aL286900187L
aL1844566159L
aL2206162371L
aL2174877698L
aL286900188L
aL339269476L
aL1610885999L
aL339269514L
aL2174877452L
aL424329169L
aL2206168484L
aL102825447L
asg9
(lp2924
I30
aI31
asg11
L57355727L
sg12
(lp2925
Vname
p2926
aVNorth Sheridan Road
p2927
aVlanes
p2928
aV2
p2929
aVoneway
p2930
aVno
p2931
aVhighway
p2932
aVprimary
p2933
asbag1
(g2
g3
Ntp2934
Rp2935
(dp2936
g7
(lp2937
L250278912L
aL262077310L
aL2642873515L
aL286900245L
aL286900249L
aL2328702573L
aL4069458195L
aL286900268L
aL2328702613L
aL2328702688L
aL1257584223L
aL286900184L
aL1844566211L
aL286900185L
aL1844566113L
aL286900186L
aL286900187L
aL1844566159L
aL2206162371L
aL2174877698L
aL286900188L
aL339269476L
aL1610885999L
aL339269514L
aL2174877452L
aL424329169L
aL2206168484L
aL102825447L
asg9
(lp2938
I26
aI26
asg11
L57355727L
sg12
(lp2939
Vname
p2940
aVNorth Sheridan Road
p2941
aVlanes
p2942
aV2
p2943
aVoneway
p2944
aVno
p2945
aVhighway
p2946
aVprimary
p2947
asbag1
(g2
g3
Ntp2948
Rp2949
(dp2950
g7
(lp2951
L250278912L
aL262077310L
aL2642873515L
aL286900245L
aL286900249L
aL2328702573L
aL4069458195L
aL286900268L
aL2328702613L
aL2328702688L
aL1257584223L
aL286900184L
aL1844566211L
aL286900185L
aL1844566113L
aL286900186L
aL286900187L
aL1844566159L
aL2206162371L
aL2174877698L
aL286900188L
aL339269476L
aL1610885999L
aL339269514L
aL2174877452L
aL424329169L
aL2206168484L
aL102825447L
asg9
(lp2952
I26
aI27
asg11
L57355727L
sg12
(lp2953
Vname
p2954
aVNorth Sheridan Road
p2955
aVlanes
p2956
aV2
p2957
aVoneway
p2958
aVno
p2959
aVhighway
p2960
aVprimary
p2961
asbag1
(g2
g3
Ntp2962
Rp2963
(dp2964
g7
(lp2965
L250278912L
aL262077310L
aL2642873515L
aL286900245L
aL286900249L
aL2328702573L
aL4069458195L
aL286900268L
aL2328702613L
aL2328702688L
aL1257584223L
aL286900184L
aL1844566211L
aL286900185L
aL1844566113L
aL286900186L
aL286900187L
aL1844566159L
aL2206162371L
aL2174877698L
aL286900188L
aL339269476L
aL1610885999L
aL339269514L
aL2174877452L
aL424329169L
aL2206168484L
aL102825447L
asg9
(lp2966
I28
aI28
asg11
L57355727L
sg12
(lp2967
Vname
p2968
aVNorth Sheridan Road
p2969
aVlanes
p2970
aV2
p2971
aVoneway
p2972
aVno
p2973
aVhighway
p2974
aVprimary
p2975
asbag1
(g2
g3
Ntp2976
Rp2977
(dp2978
g7
(lp2979
L258486782L
aL339269359L
aL26794467L
aL26794468L
aL26794474L
aL258486763L
aL258486764L
aL258486662L
asg9
(lp2980
I17
aI17
asg11
L30679326L
sg12
(lp2981
VNHS
p2982
aVyes
p2983
aVhgv
p2984
aVno
p2985
aVref
p2986
aVUS 41
p2987
aVname
p2988
aVNorth Lake Shore Drive
p2989
aVlanes
p2990
aV4
p2991
aVoneway
p2992
aVyes
p2993
aVhighway
p2994
aVtrunk
p2995
asbag1
(g2
g3
Ntp2996
Rp2997
(dp2998
g7
(lp2999
L250278912L
aL262077310L
aL2642873515L
aL286900245L
aL286900249L
aL2328702573L
aL4069458195L
aL286900268L
aL2328702613L
aL2328702688L
aL1257584223L
aL286900184L
aL1844566211L
aL286900185L
aL1844566113L
aL286900186L
aL286900187L
aL1844566159L
aL2206162371L
aL2174877698L
aL286900188L
aL339269476L
aL1610885999L
aL339269514L
aL2174877452L
aL424329169L
aL2206168484L
aL102825447L
asg9
(lp3000
I31
aI31
asg11
L57355727L
sg12
(lp3001
Vname
p3002
aVNorth Sheridan Road
p3003
aVlanes
p3004
aV2
p3005
aVoneway
p3006
aVno
p3007
aVhighway
p3008
aVprimary
p3009
asbag1
(g2
g3
Ntp3010
Rp3011
(dp3012
g7
(lp3013
L27446496L
aL369883857L
aL740260181L
aL27446495L
asg9
(lp3014
I7
aI7
asg11
L316912738L
sg12
(lp3015
Vname
p3016
aVEast Washington Street
p3017
aVoneway
p3018
aVyes
p3019
aVbicycle
p3020
aVdesignated
p3021
aVhighway
p3022
aVprimary
p3023
aVloc_ref
p3024
aV100 N
p3025
aVsidewalk
p3026
aVboth
p3027
asbag1
(g2
g3
Ntp3028
Rp3029
(dp3030
g7
(lp3031
L27721221L
aL2398529871L
aL2395425329L
aL369890733L
aL369890812L
aL736917894L
aL27721224L
aL2395425330L
aL736862003L
aL931260010L
aL736860897L
aL3884752869L
asg9
(lp3032
I10
aI10
asg11
L4519037L
sg12
(lp3033
Vname
p3034
aVNorth Michigan Avenue
p3035
aVlayer
p3036
aV1
p3037
aVoneway
p3038
aVyes
p3039
aVhighway
p3040
aVprimary
p3041
aVloc_ref
p3042
aV100 E
p3043
asbag1
(g2
g3
Ntp3044
Rp3045
(dp3046
g7
(lp3047
L27721221L
aL2398529871L
aL2395425329L
aL369890733L
aL369890812L
aL736917894L
aL27721224L
aL2395425330L
aL736862003L
aL931260010L
aL736860897L
aL3884752869L
asg9
(lp3048
I10
aI10
asg11
L4519037L
sg12
(lp3049
Vname
p3050
aVNorth Michigan Avenue
p3051
aVlayer
p3052
aV1
p3053
aVoneway
p3054
aVyes
p3055
aVhighway
p3056
aVprimary
p3057
aVloc_ref
p3058
aV100 E
p3059
asbag1
(g2
g3
Ntp3060
Rp3061
(dp3062
g7
(lp3063
L250278912L
aL262077310L
aL2642873515L
aL286900245L
aL286900249L
aL2328702573L
aL4069458195L
aL286900268L
aL2328702613L
aL2328702688L
aL1257584223L
aL286900184L
aL1844566211L
aL286900185L
aL1844566113L
aL286900186L
aL286900187L
aL1844566159L
aL2206162371L
aL2174877698L
aL286900188L
aL339269476L
aL1610885999L
aL339269514L
aL2174877452L
aL424329169L
aL2206168484L
aL102825447L
asg9
(lp3064
I32
aI32
asg11
L57355727L
sg12
(lp3065
Vname
p3066
aVNorth Sheridan Road
p3067
aVlanes
p3068
aV2
p3069
aVoneway
p3070
aVno
p3071
aVhighway
p3072
aVprimary
p3073
asbag1
(g2
g3
Ntp3074
Rp3075
(dp3076
g7
(lp3077
L3884752869L
aL931259982L
aL931259976L
aL271175339L
aL619647952L
aL3257711547L
aL3257711546L
aL27721250L
asg9
(lp3078
I12
aI12
asg11
L79785857L
sg12
(lp3079
Vname
p3080
aVNorth Michigan Avenue
p3081
aVlayer
p3082
aV1
p3083
aVoneway
p3084
aVyes
p3085
aVhighway
p3086
aVprimary
p3087
aVloc_ref
p3088
aV100 E
p3089
asbag1
(g2
g3
Ntp3090
Rp3091
(dp3092
g7
(lp3093
L27446720L
aL706968769L
aL4156112922L
aL740243454L
aL2401831551L
aL2391003237L
aL4156112932L
aL28289299L
aL2892003846L
aL4156112927L
aL2391030896L
aL2391030898L
aL28289310L
aL28289318L
aL27477590L
asg9
(lp3094
I5
aI5
asg11
L4543073L
sg12
(lp3095
Vname
p3096
aVWest Madison Street
p3097
aVbusway
p3098
aVlane
p3099
aVoneway
p3100
aVyes
p3101
aVhighway
p3102
aVsecondary
p3103
aVloc_ref
p3104
aV0 N/S
p3105
aVcycleway
p3106
aVlane
p3107
asbag1
(g2
g3
Ntp3108
Rp3109
(dp3110
g7
(lp3111
L709412789L
aL2787305624L
aL1884311493L
aL709412743L
aL709412759L
aL388608183L
asg9
(lp3112
I2
aI2
asg11
L236157125L
sg12
(lp3113
Vname
p3114
aVEast Congress Parkway
p3115
aVoneway
p3116
aVyes
p3117
aVhighway
p3118
aVprimary
p3119
aVloc_ref
p3120
aV500 S
p3121
aVsidewalk
p3122
aVright
p3123
asbag1
(g2
g3
Ntp3124
Rp3125
(dp3126
g7
(lp3127
L709412789L
aL2787305624L
aL1884311493L
aL709412743L
aL709412759L
aL388608183L
asg9
(lp3128
I2
aI2
asg11
L236157125L
sg12
(lp3129
Vname
p3130
aVEast Congress Parkway
p3131
aVoneway
p3132
aVyes
p3133
aVhighway
p3134
aVprimary
p3135
aVloc_ref
p3136
aV500 S
p3137
aVsidewalk
p3138
aVright
p3139
asbag1
(g2
g3
Ntp3140
Rp3141
(dp3142
g7
(lp3143
L1752506228L
aL1752519480L
aL261147436L
aL1752519484L
aL261147440L
aL1293577340L
aL261147442L
aL1752584803L
aL261147444L
aL1752633966L
aL1752498592L
aL712839669L
asg9
(lp3144
I48
aI48
asg11
L34091150L
sg12
(lp3145
Vname
p3146
aVNorth Rogers Avenue
p3147
aVhighway
p3148
aVsecondary
p3149
aVcycleway
p3150
aVshared_lane
p3151
asbag1
(g2
g3
Ntp3152
Rp3153
(dp3154
g7
(lp3155
L712839669L
aL712839675L
aL712839674L
aL1293577386L
aL261146197L
asg9
(lp3156
I48
aI48
asg11
L317625745L
sg12
(lp3157
Vname
p3158
aVWest Howard Street
p3159
aVlayer
p3160
aV0
p3161
aVhighway
p3162
aVsecondary
p3163
aVloc_ref
p3164
aV7600 N
p3165
aVsidewalk
p3166
aVboth
p3167
asbag1
(g2
g3
Ntp3168
Rp3169
(dp3170
g7
(lp3171
L712839669L
aL712839675L
aL712839674L
aL1293577386L
aL261146197L
asg9
(lp3172
I48
aI48
asg11
L317625745L
sg12
(lp3173
Vname
p3174
aVWest Howard Street
p3175
aVlayer
p3176
aV0
p3177
aVhighway
p3178
aVsecondary
p3179
aVloc_ref
p3180
aV7600 N
p3181
aVsidewalk
p3182
aVboth
p3183
asbag1
(g2
g3
Ntp3184
Rp3185
(dp3186
g7
(lp3187
L713311573L
aL258964044L
aL258964045L
asg9
(lp3188
I17
aI17
asg11
L57377095L
sg12
(lp3189
Vhgv
p3190
aVno
p3191
aVoneway
p3192
aVyes
p3193
aVhighway
p3194
aVtrunk_link
p3195
aVtiger:cfcc
p3196
aVA41
p3197
aVtiger:county
p3198
aVCook, IL
p3199
aVtiger:reviewed
p3200
aVno
p3201
aVtiger:zip_left
p3202
aV60611
p3203
aVtiger:name_base
p3204
aVOak
p3205
aVtiger:name_type
p3206
aVSt
p3207
aVtiger:zip_right
p3208
aV60611
p3209
aVtiger:name_direction_prefix
p3210
aVE
p3211
asbag1
(g2
g3
Ntp3212
Rp3213
(dp3214
g7
(lp3215
L713312029L
aL2981612601L
aL2981612604L
aL3191762966L
aL713311573L
asg9
(lp3216
I17
aI17
asg11
L294565006L
sg12
(lp3217
Vname
p3218
aVNorth Michigan Avenue
p3219
aVoneway
p3220
aVyes
p3221
aVhighway
p3222
aVprimary
p3223
asbag1
(g2
g3
Ntp3224
Rp3225
(dp3226
g7
(lp3227
L258964045L
aL258964048L
aL713315937L
aL713315938L
aL258964049L
asg9
(lp3228
I17
aI17
asg11
L23891533L
sg12
(lp3229
Vhgv
p3230
aVno
p3231
aVlayer
p3232
aV-1
p3233
aVoneway
p3234
aVyes
p3235
aVtunnel
p3236
aVyes
p3237
aVhighway
p3238
aVtrunk_link
p3239
aVtiger:cfcc
p3240
aVA41
p3241
aVtiger:county
p3242
aVCook, IL
p3243
aVtiger:reviewed
p3244
aVno
p3245
aVtiger:zip_left
p3246
aV60611
p3247
aVtiger:name_base
p3248
aVOak
p3249
aVtiger:name_type
p3250
aVSt
p3251
aVtiger:zip_right
p3252
aV60611
p3253
aVtiger:name_direction_prefix
p3254
aVE
p3255
asbag1
(g2
g3
Ntp3256
Rp3257
(dp3258
g7
(lp3259
L258964045L
aL258964048L
aL713315937L
aL713315938L
aL258964049L
asg9
(lp3260
I17
aI17
asg11
L23891533L
sg12
(lp3261
Vhgv
p3262
aVno
p3263
aVlayer
p3264
aV-1
p3265
aVoneway
p3266
aVyes
p3267
aVtunnel
p3268
aVyes
p3269
aVhighway
p3270
aVtrunk_link
p3271
aVtiger:cfcc
p3272
aVA41
p3273
aVtiger:county
p3274
aVCook, IL
p3275
aVtiger:reviewed
p3276
aVno
p3277
aVtiger:zip_left
p3278
aV60611
p3279
aVtiger:name_base
p3280
aVOak
p3281
aVtiger:name_type
p3282
aVSt
p3283
aVtiger:zip_right
p3284
aV60611
p3285
aVtiger:name_direction_prefix
p3286
aVE
p3287
asbag1
(g2
g3
Ntp3288
Rp3289
(dp3290
g7
(lp3291
L258965972L
aL3191766673L
aL3918786383L
aL3191766669L
aL272213455L
aL3191766667L
aL3191766379L
aL261161069L
aL3191766375L
aL3191766373L
aL27440483L
aL3191766369L
aL713334461L
aL713334462L
aL736864188L
aL3191766367L
aL27440482L
asg9
(lp3292
I14
aI14
asg11
L255369389L
sg12
(lp3293
Vname
p3294
aVNorth Michigan Avenue
p3295
aVoneway
p3296
aVyes
p3297
aVhighway
p3298
aVprimary
p3299
asbag1
(g2
g3
Ntp3300
Rp3301
(dp3302
g7
(lp3303
L27440482L
aL1648217755L
aL736864190L
aL713334463L
aL3191766362L
aL27440481L
aL3191766365L
aL736864191L
aL713334464L
aL736864193L
aL3191763969L
aL27440480L
aL3191763967L
aL2396299124L
aL2396293695L
aL2422420957L
aL2396293696L
aL2396300353L
aL3191763963L
aL27440479L
aL3191762973L
aL3191762971L
aL27440478L
aL3191762967L
aL713312029L
asg9
(lp3304
I14
aI14
asg11
L106783557L
sg12
(lp3305
Vname
p3306
aVNorth Michigan Avenue
p3307
aVoneway
p3308
aVyes
p3309
aVhighway
p3310
aVprimary
p3311
asbag1
(g2
g3
Ntp3312
Rp3313
(dp3314
g7
(lp3315
L27440482L
aL1648217755L
aL736864190L
aL713334463L
aL3191766362L
aL27440481L
aL3191766365L
aL736864191L
aL713334464L
aL736864193L
aL3191763969L
aL27440480L
aL3191763967L
aL2396299124L
aL2396293695L
aL2422420957L
aL2396293696L
aL2396300353L
aL3191763963L
aL27440479L
aL3191762973L
aL3191762971L
aL27440478L
aL3191762967L
aL713312029L
asg9
(lp3316
I14
aI14
asg11
L106783557L
sg12
(lp3317
Vname
p3318
aVNorth Michigan Avenue
p3319
aVoneway
p3320
aVyes
p3321
aVhighway
p3322
aVprimary
p3323
asbag1
(g2
g3
Ntp3324
Rp3325
(dp3326
g7
(lp3327
L27721221L
aL2398529871L
aL2395425329L
aL369890733L
aL369890812L
aL736917894L
aL27721224L
aL2395425330L
aL736862003L
aL931260010L
aL736860897L
aL3884752869L
asg9
(lp3328
I11
aI11
asg11
L4519037L
sg12
(lp3329
Vname
p3330
aVNorth Michigan Avenue
p3331
aVlayer
p3332
aV1
p3333
aVoneway
p3334
aVyes
p3335
aVhighway
p3336
aVprimary
p3337
aVloc_ref
p3338
aV100 E
p3339
asbag1
(g2
g3
Ntp3340
Rp3341
(dp3342
g7
(lp3343
L27721221L
aL2398529871L
aL2395425329L
aL369890733L
aL369890812L
aL736917894L
aL27721224L
aL2395425330L
aL736862003L
aL931260010L
aL736860897L
aL3884752869L
asg9
(lp3344
I11
aI11
asg11
L4519037L
sg12
(lp3345
Vname
p3346
aVNorth Michigan Avenue
p3347
aVlayer
p3348
aV1
p3349
aVoneway
p3350
aVyes
p3351
aVhighway
p3352
aVprimary
p3353
aVloc_ref
p3354
aV100 E
p3355
asbag1
(g2
g3
Ntp3356
Rp3357
(dp3358
g7
(lp3359
L269446279L
aL3191763966L
aL713334251L
aL736864162L
aL3191766364L
aL269446281L
aL3191766361L
aL713334252L
aL736864163L
aL736864164L
aL2812430206L
aL269446280L
asg9
(lp3360
I15
aI15
asg11
L57377327L
sg12
(lp3361
Vname
p3362
aVNorth Michigan Avenue
p3363
aVoneway
p3364
aVyes
p3365
aVhighway
p3366
aVprimary
p3367
asbag1
(g2
g3
Ntp3368
Rp3369
(dp3370
g7
(lp3371
L258965972L
aL3191766673L
aL3918786383L
aL3191766669L
aL272213455L
aL3191766667L
aL3191766379L
aL261161069L
aL3191766375L
aL3191766373L
aL27440483L
aL3191766369L
aL713334461L
aL713334462L
aL736864188L
aL3191766367L
aL27440482L
asg9
(lp3372
I14
aI14
asg11
L255369389L
sg12
(lp3373
Vname
p3374
aVNorth Michigan Avenue
p3375
aVoneway
p3376
aVyes
p3377
aVhighway
p3378
aVprimary
p3379
asbag1
(g2
g3
Ntp3380
Rp3381
(dp3382
g7
(lp3383
L27440482L
aL1648217755L
aL736864190L
aL713334463L
aL3191766362L
aL27440481L
aL3191766365L
aL736864191L
aL713334464L
aL736864193L
aL3191763969L
aL27440480L
aL3191763967L
aL2396299124L
aL2396293695L
aL2422420957L
aL2396293696L
aL2396300353L
aL3191763963L
aL27440479L
aL3191762973L
aL3191762971L
aL27440478L
aL3191762967L
aL713312029L
asg9
(lp3384
I14
aI14
asg11
L106783557L
sg12
(lp3385
Vname
p3386
aVNorth Michigan Avenue
p3387
aVoneway
p3388
aVyes
p3389
aVhighway
p3390
aVprimary
p3391
asbag1
(g2
g3
Ntp3392
Rp3393
(dp3394
g7
(lp3395
L27440482L
aL1648217755L
aL736864190L
aL713334463L
aL3191766362L
aL27440481L
aL3191766365L
aL736864191L
aL713334464L
aL736864193L
aL3191763969L
aL27440480L
aL3191763967L
aL2396299124L
aL2396293695L
aL2422420957L
aL2396293696L
aL2396300353L
aL3191763963L
aL27440479L
aL3191762973L
aL3191762971L
aL27440478L
aL3191762967L
aL713312029L
asg9
(lp3396
I14
aI14
asg11
L106783557L
sg12
(lp3397
Vname
p3398
aVNorth Michigan Avenue
p3399
aVoneway
p3400
aVyes
p3401
aVhighway
p3402
aVprimary
p3403
asbag1
(g2
g3
Ntp3404
Rp3405
(dp3406
g7
(lp3407
L27721221L
aL2398529871L
aL2395425329L
aL369890733L
aL369890812L
aL736917894L
aL27721224L
aL2395425330L
aL736862003L
aL931260010L
aL736860897L
aL3884752869L
asg9
(lp3408
I10
aI10
asg11
L4519037L
sg12
(lp3409
Vname
p3410
aVNorth Michigan Avenue
p3411
aVlayer
p3412
aV1
p3413
aVoneway
p3414
aVyes
p3415
aVhighway
p3416
aVprimary
p3417
aVloc_ref
p3418
aV100 E
p3419
asbag1
(g2
g3
Ntp3420
Rp3421
(dp3422
g7
(lp3423
L258964049L
aL739097230L
aL739097233L
aL739097237L
aL739097239L
aL739097242L
aL739097245L
aL739097248L
aL739097251L
aL739097254L
aL739097256L
aL739097259L
aL739097263L
aL739097268L
asg9
(lp3424
I17
aI17
asg11
L23891544L
sg12
(lp3425
Vhgv
p3426
aVno
p3427
aVoneway
p3428
aVyes
p3429
aVhighway
p3430
aVtrunk_link
p3431
asbag1
(g2
g3
Ntp3432
Rp3433
(dp3434
g7
(lp3435
L258964049L
aL739097230L
aL739097233L
aL739097237L
aL739097239L
aL739097242L
aL739097245L
aL739097248L
aL739097251L
aL739097254L
aL739097256L
aL739097259L
aL739097263L
aL739097268L
asg9
(lp3436
I17
aI17
asg11
L23891544L
sg12
(lp3437
Vhgv
p3438
aVno
p3439
aVoneway
p3440
aVyes
p3441
aVhighway
p3442
aVtrunk_link
p3443
asbag1
(g2
g3
Ntp3444
Rp3445
(dp3446
g7
(lp3447
L258964049L
aL739097230L
aL739097233L
aL739097237L
aL739097239L
aL739097242L
aL739097245L
aL739097248L
aL739097251L
aL739097254L
aL739097256L
aL739097259L
aL739097263L
aL739097268L
asg9
(lp3448
I17
aI17
asg11
L23891544L
sg12
(lp3449
Vhgv
p3450
aVno
p3451
aVoneway
p3452
aVyes
p3453
aVhighway
p3454
aVtrunk_link
p3455
asbag1
(g2
g3
Ntp3456
Rp3457
(dp3458
g7
(lp3459
L258964049L
aL739097230L
aL739097233L
aL739097237L
aL739097239L
aL739097242L
aL739097245L
aL739097248L
aL739097251L
aL739097254L
aL739097256L
aL739097259L
aL739097263L
aL739097268L
asg9
(lp3460
I17
aI17
asg11
L23891544L
sg12
(lp3461
Vhgv
p3462
aVno
p3463
aVoneway
p3464
aVyes
p3465
aVhighway
p3466
aVtrunk_link
p3467
asbag1
(g2
g3
Ntp3468
Rp3469
(dp3470
g7
(lp3471
L258964049L
aL739097230L
aL739097233L
aL739097237L
aL739097239L
aL739097242L
aL739097245L
aL739097248L
aL739097251L
aL739097254L
aL739097256L
aL739097259L
aL739097263L
aL739097268L
asg9
(lp3472
I17
aI17
asg11
L23891544L
sg12
(lp3473
Vhgv
p3474
aVno
p3475
aVoneway
p3476
aVyes
p3477
aVhighway
p3478
aVtrunk_link
p3479
asbag1
(g2
g3
Ntp3480
Rp3481
(dp3482
g7
(lp3483
L258964049L
aL739097230L
aL739097233L
aL739097237L
aL739097239L
aL739097242L
aL739097245L
aL739097248L
aL739097251L
aL739097254L
aL739097256L
aL739097259L
aL739097263L
aL739097268L
asg9
(lp3484
I17
aI17
asg11
L23891544L
sg12
(lp3485
Vhgv
p3486
aVno
p3487
aVoneway
p3488
aVyes
p3489
aVhighway
p3490
aVtrunk_link
p3491
asbag1
(g2
g3
Ntp3492
Rp3493
(dp3494
g7
(lp3495
L258964049L
aL739097230L
aL739097233L
aL739097237L
aL739097239L
aL739097242L
aL739097245L
aL739097248L
aL739097251L
aL739097254L
aL739097256L
aL739097259L
aL739097263L
aL739097268L
asg9
(lp3496
I17
aI17
asg11
L23891544L
sg12
(lp3497
Vhgv
p3498
aVno
p3499
aVoneway
p3500
aVyes
p3501
aVhighway
p3502
aVtrunk_link
p3503
asbag1
(g2
g3
Ntp3504
Rp3505
(dp3506
g7
(lp3507
L258964049L
aL739097230L
aL739097233L
aL739097237L
aL739097239L
aL739097242L
aL739097245L
aL739097248L
aL739097251L
aL739097254L
aL739097256L
aL739097259L
aL739097263L
aL739097268L
asg9
(lp3508
I17
aI17
asg11
L23891544L
sg12
(lp3509
Vhgv
p3510
aVno
p3511
aVoneway
p3512
aVyes
p3513
aVhighway
p3514
aVtrunk_link
p3515
asbag1
(g2
g3
Ntp3516
Rp3517
(dp3518
g7
(lp3519
L258964049L
aL739097230L
aL739097233L
aL739097237L
aL739097239L
aL739097242L
aL739097245L
aL739097248L
aL739097251L
aL739097254L
aL739097256L
aL739097259L
aL739097263L
aL739097268L
asg9
(lp3520
I17
aI17
asg11
L23891544L
sg12
(lp3521
Vhgv
p3522
aVno
p3523
aVoneway
p3524
aVyes
p3525
aVhighway
p3526
aVtrunk_link
p3527
asbag1
(g2
g3
Ntp3528
Rp3529
(dp3530
g7
(lp3531
L258964049L
aL739097230L
aL739097233L
aL739097237L
aL739097239L
aL739097242L
aL739097245L
aL739097248L
aL739097251L
aL739097254L
aL739097256L
aL739097259L
aL739097263L
aL739097268L
asg9
(lp3532
I17
aI17
asg11
L23891544L
sg12
(lp3533
Vhgv
p3534
aVno
p3535
aVoneway
p3536
aVyes
p3537
aVhighway
p3538
aVtrunk_link
p3539
asbag1
(g2
g3
Ntp3540
Rp3541
(dp3542
g7
(lp3543
L258964049L
aL739097230L
aL739097233L
aL739097237L
aL739097239L
aL739097242L
aL739097245L
aL739097248L
aL739097251L
aL739097254L
aL739097256L
aL739097259L
aL739097263L
aL739097268L
asg9
(lp3544
I17
aI17
asg11
L23891544L
sg12
(lp3545
Vhgv
p3546
aVno
p3547
aVoneway
p3548
aVyes
p3549
aVhighway
p3550
aVtrunk_link
p3551
asbag1
(g2
g3
Ntp3552
Rp3553
(dp3554
g7
(lp3555
L258964049L
aL739097230L
aL739097233L
aL739097237L
aL739097239L
aL739097242L
aL739097245L
aL739097248L
aL739097251L
aL739097254L
aL739097256L
aL739097259L
aL739097263L
aL739097268L
asg9
(lp3556
I17
aI17
asg11
L23891544L
sg12
(lp3557
Vhgv
p3558
aVno
p3559
aVoneway
p3560
aVyes
p3561
aVhighway
p3562
aVtrunk_link
p3563
asbag1
(g2
g3
Ntp3564
Rp3565
(dp3566
g7
(lp3567
L739097268L
aL739097559L
aL739101922L
aL739101923L
aL26098153L
aL739101924L
aL739101925L
aL250755885L
aL26098155L
aL26098157L
aL4075955311L
aL271146941L
aL4075955310L
aL26098158L
aL26098159L
asg9
(lp3568
I17
aI17
asg11
L317622794L
sg12
(lp3569
VNHS
p3570
aVyes
p3571
aVhgv
p3572
aVno
p3573
aVref
p3574
aVUS 41
p3575
aVname
p3576
aVNorth Lake Shore Drive
p3577
aVlanes
p3578
aV4
p3579
aVoneway
p3580
aVyes
p3581
aVhighway
p3582
aVtrunk
p3583
asbag1
(g2
g3
Ntp3584
Rp3585
(dp3586
g7
(lp3587
L739097268L
aL739097559L
aL739101922L
aL739101923L
aL26098153L
aL739101924L
aL739101925L
aL250755885L
aL26098155L
aL26098157L
aL4075955311L
aL271146941L
aL4075955310L
aL26098158L
aL26098159L
asg9
(lp3588
I17
aI17
asg11
L317622794L
sg12
(lp3589
VNHS
p3590
aVyes
p3591
aVhgv
p3592
aVno
p3593
aVref
p3594
aVUS 41
p3595
aVname
p3596
aVNorth Lake Shore Drive
p3597
aVlanes
p3598
aV4
p3599
aVoneway
p3600
aVyes
p3601
aVhighway
p3602
aVtrunk
p3603
asbag1
(g2
g3
Ntp3604
Rp3605
(dp3606
g7
(lp3607
L739097268L
aL739097559L
aL739101922L
aL739101923L
aL26098153L
aL739101924L
aL739101925L
aL250755885L
aL26098155L
aL26098157L
aL4075955311L
aL271146941L
aL4075955310L
aL26098158L
aL26098159L
asg9
(lp3608
I17
aI17
asg11
L317622794L
sg12
(lp3609
VNHS
p3610
aVyes
p3611
aVhgv
p3612
aVno
p3613
aVref
p3614
aVUS 41
p3615
aVname
p3616
aVNorth Lake Shore Drive
p3617
aVlanes
p3618
aV4
p3619
aVoneway
p3620
aVyes
p3621
aVhighway
p3622
aVtrunk
p3623
asbag1
(g2
g3
Ntp3624
Rp3625
(dp3626
g7
(lp3627
L739097268L
aL739097559L
aL739101922L
aL739101923L
aL26098153L
aL739101924L
aL739101925L
aL250755885L
aL26098155L
aL26098157L
aL4075955311L
aL271146941L
aL4075955310L
aL26098158L
aL26098159L
asg9
(lp3628
I17
aI17
asg11
L317622794L
sg12
(lp3629
VNHS
p3630
aVyes
p3631
aVhgv
p3632
aVno
p3633
aVref
p3634
aVUS 41
p3635
aVname
p3636
aVNorth Lake Shore Drive
p3637
aVlanes
p3638
aV4
p3639
aVoneway
p3640
aVyes
p3641
aVhighway
p3642
aVtrunk
p3643
asbag1
(g2
g3
Ntp3644
Rp3645
(dp3646
g7
(lp3647
L739097268L
aL739097559L
aL739101922L
aL739101923L
aL26098153L
aL739101924L
aL739101925L
aL250755885L
aL26098155L
aL26098157L
aL4075955311L
aL271146941L
aL4075955310L
aL26098158L
aL26098159L
asg9
(lp3648
I17
aI17
asg11
L317622794L
sg12
(lp3649
VNHS
p3650
aVyes
p3651
aVhgv
p3652
aVno
p3653
aVref
p3654
aVUS 41
p3655
aVname
p3656
aVNorth Lake Shore Drive
p3657
aVlanes
p3658
aV4
p3659
aVoneway
p3660
aVyes
p3661
aVhighway
p3662
aVtrunk
p3663
asbag1
(g2
g3
Ntp3664
Rp3665
(dp3666
g7
(lp3667
L739097268L
aL739097559L
aL739101922L
aL739101923L
aL26098153L
aL739101924L
aL739101925L
aL250755885L
aL26098155L
aL26098157L
aL4075955311L
aL271146941L
aL4075955310L
aL26098158L
aL26098159L
asg9
(lp3668
I17
aI17
asg11
L317622794L
sg12
(lp3669
VNHS
p3670
aVyes
p3671
aVhgv
p3672
aVno
p3673
aVref
p3674
aVUS 41
p3675
aVname
p3676
aVNorth Lake Shore Drive
p3677
aVlanes
p3678
aV4
p3679
aVoneway
p3680
aVyes
p3681
aVhighway
p3682
aVtrunk
p3683
asbag1
(g2
g3
Ntp3684
Rp3685
(dp3686
g7
(lp3687
L272208894L
aL2787305569L
aL1947573146L
aL740237252L
aL27440244L
aL740237253L
aL258024595L
aL2871599692L
aL740237254L
aL258024597L
aL2787305648L
asg9
(lp3688
I1
aI1
asg11
L313874094L
sg12
(lp3689
Vname
p3690
aVEast Congress Plaza Drive
p3691
aVhighway
p3692
aVtertiary
p3693
aVloc_ref
p3694
aV100 E
p3695
aVsidewalk
p3696
aVboth
p3697
asbag1
(g2
g3
Ntp3698
Rp3699
(dp3700
g7
(lp3701
L272208894L
aL2787305569L
aL1947573146L
aL740237252L
aL27440244L
aL740237253L
aL258024595L
aL2871599692L
aL740237254L
aL258024597L
aL2787305648L
asg9
(lp3702
I0
aI0
asg11
L313874094L
sg12
(lp3703
Vname
p3704
aVEast Congress Plaza Drive
p3705
aVhighway
p3706
aVtertiary
p3707
aVloc_ref
p3708
aV100 E
p3709
aVsidewalk
p3710
aVboth
p3711
asbag1
(g2
g3
Ntp3712
Rp3713
(dp3714
g7
(lp3715
L272208894L
aL2787305569L
aL1947573146L
aL740237252L
aL27440244L
aL740237253L
aL258024595L
aL2871599692L
aL740237254L
aL258024597L
aL2787305648L
asg9
(lp3716
I0
aI0
asg11
L313874094L
sg12
(lp3717
Vname
p3718
aVEast Congress Plaza Drive
p3719
aVhighway
p3720
aVtertiary
p3721
aVloc_ref
p3722
aV100 E
p3723
aVsidewalk
p3724
aVboth
p3725
asbag1
(g2
g3
Ntp3726
Rp3727
(dp3728
g7
(lp3729
L2787305648L
aL740237255L
aL27440242L
asg9
(lp3730
I1
aI1
asg11
L313874095L
sg12
(lp3731
Vname
p3732
aVEast Congress Plaza Drive
p3733
aVhighway
p3734
aVtertiary
p3735
aVloc_ref
p3736
aV100 E
p3737
aVsidewalk
p3738
aVboth
p3739
asbag1
(g2
g3
Ntp3740
Rp3741
(dp3742
g7
(lp3743
L27446720L
aL706968769L
aL4156112922L
aL740243454L
aL2401831551L
aL2391003237L
aL4156112932L
aL28289299L
aL2892003846L
aL4156112927L
aL2391030896L
aL2391030898L
aL28289310L
aL28289318L
aL27477590L
asg9
(lp3744
I5
aI5
asg11
L4543073L
sg12
(lp3745
Vname
p3746
aVWest Madison Street
p3747
aVbusway
p3748
aVlane
p3749
aVoneway
p3750
aVyes
p3751
aVhighway
p3752
aVsecondary
p3753
aVloc_ref
p3754
aV0 N/S
p3755
aVcycleway
p3756
aVlane
p3757
asbag1
(g2
g3
Ntp3758
Rp3759
(dp3760
g7
(lp3761
L27446720L
aL27446709L
aL740243555L
aL27446708L
aL2392113522L
aL740243676L
aL2392113519L
aL27440221L
asg9
(lp3762
I5
aI5
asg11
L23887717L
sg12
(lp3763
Vname
p3764
aVSouth State Street
p3765
aVlanes
p3766
aV4
p3767
aVhighway
p3768
aVprimary
p3769
aVloc_ref
p3770
aV0 - E & W
p3771
asbag1
(g2
g3
Ntp3772
Rp3773
(dp3774
g7
(lp3775
L27446720L
aL27446709L
aL740243555L
aL27446708L
aL2392113522L
aL740243676L
aL2392113519L
aL27440221L
asg9
(lp3776
I4
aI4
asg11
L23887717L
sg12
(lp3777
Vname
p3778
aVSouth State Street
p3779
aVlanes
p3780
aV4
p3781
aVhighway
p3782
aVprimary
p3783
aVloc_ref
p3784
aV0 - E & W
p3785
asbag1
(g2
g3
Ntp3786
Rp3787
(dp3788
g7
(lp3789
L28290277L
aL3211798021L
aL2391030903L
aL2391027633L
aL740260072L
aL2391027639L
aL3211798020L
aL4156112934L
aL28289299L
asg9
(lp3790
I6
aI6
asg11
L315089479L
sg12
(lp3791
Vname
p3792
aVNorth Dearborn Street
p3793
aVbench
p3794
aVyes
p3795
aVoneway
p3796
aV-1
p3797
aVhighway
p3798
aVsecondary
p3799
aVloc_ref
p3800
aV50 W
p3801
aVshelter
p3802
aVno
p3803
aVoperator
p3804
aVChicago Transit Authority
p3805
asbag1
(g2
g3
Ntp3806
Rp3807
(dp3808
g7
(lp3809
L28290256L
aL4156112895L
aL740260178L
aL2391120252L
aL4156112907L
aL27446756L
asg9
(lp3810
I6
aI7
asg11
L151989531L
sg12
(lp3811
Vname
p3812
aVEast Washington Street
p3813
aVbusway
p3814
aVlane
p3815
aVoneway
p3816
aVyes
p3817
aVbicycle
p3818
aVdesignated
p3819
aVhighway
p3820
aVprimary
p3821
aVloc_ref
p3822
aV100 N
p3823
aVcycleway
p3824
aVtrack
p3825
aVsidewalk
p3826
aVboth
p3827
asbag1
(g2
g3
Ntp3828
Rp3829
(dp3830
g7
(lp3831
L27446496L
aL369883857L
aL740260181L
aL27446495L
asg9
(lp3832
I7
aI7
asg11
L316912738L
sg12
(lp3833
Vname
p3834
aVEast Washington Street
p3835
aVoneway
p3836
aVyes
p3837
aVbicycle
p3838
aVdesignated
p3839
aVhighway
p3840
aVprimary
p3841
aVloc_ref
p3842
aV100 N
p3843
aVsidewalk
p3844
aVboth
p3845
asbag1
(g2
g3
Ntp3846
Rp3847
(dp3848
g7
(lp3849
L27446495L
aL4156112909L
aL740260310L
aL740260419L
aL740260420L
asg9
(lp3850
I7
aI7
asg11
L145846240L
sg12
(lp3851
Vname
p3852
aVNorth Michigan Avenue
p3853
aVoneway
p3854
aVyes
p3855
aVbicycle
p3856
aVdesignated
p3857
aVhighway
p3858
aVprimary
p3859
aVloc_ref
p3860
aV100 E
p3861
aVsidewalk
p3862
aVright
p3863
asbag1
(g2
g3
Ntp3864
Rp3865
(dp3866
g7
(lp3867
L27446495L
aL4156112909L
aL740260310L
aL740260419L
aL740260420L
asg9
(lp3868
I7
aI7
asg11
L145846240L
sg12
(lp3869
Vname
p3870
aVNorth Michigan Avenue
p3871
aVoneway
p3872
aVyes
p3873
aVbicycle
p3874
aVdesignated
p3875
aVhighway
p3876
aVprimary
p3877
aVloc_ref
p3878
aV100 E
p3879
aVsidewalk
p3880
aVright
p3881
asbag1
(g2
g3
Ntp3882
Rp3883
(dp3884
g7
(lp3885
L740260420L
aL2867411653L
aL740260421L
aL272350581L
asg9
(lp3886
I7
aI7
asg11
L231383138L
sg12
(lp3887
Vname
p3888
aVNorth Michigan Avenue
p3889
aVoneway
p3890
aVyes
p3891
aVbicycle
p3892
aVdesignated
p3893
aVhighway
p3894
aVprimary
p3895
aVloc_ref
p3896
aV100 E
p3897
aVsidewalk
p3898
aVright
p3899
asbag1
(g2
g3
Ntp3900
Rp3901
(dp3902
g7
(lp3903
L258958980L
aL4156112537L
aL740271864L
aL2391131208L
aL740271865L
aL740271866L
aL258957360L
asg9
(lp3904
I7
aI7
asg11
L145846237L
sg12
(lp3905
Vname
p3906
aVNorth Michigan Avenue
p3907
aVoneway
p3908
aVyes
p3909
aVhighway
p3910
aVprimary
p3911
aVloc_ref
p3912
aV100 E
p3913
asbag1
(g2
g3
Ntp3914
Rp3915
(dp3916
g7
(lp3917
L258958980L
aL4156112537L
aL740271864L
aL2391131208L
aL740271865L
aL740271866L
aL258957360L
asg9
(lp3918
I7
aI7
asg11
L145846237L
sg12
(lp3919
Vname
p3920
aVNorth Michigan Avenue
p3921
aVoneway
p3922
aVyes
p3923
aVhighway
p3924
aVprimary
p3925
aVloc_ref
p3926
aV100 E
p3927
asbag1
(g2
g3
Ntp3928
Rp3929
(dp3930
g7
(lp3931
L269446292L
aL740363360L
aL740363361L
aL740363362L
aL2819167158L
aL269446285L
asg9
(lp3932
I9
aI9
asg11
L48785123L
sg12
(lp3933
Vname
p3934
aVNorth Michigan Avenue
p3935
aVlayer
p3936
aV1
p3937
aVoneway
p3938
aVyes
p3939
aVhighway
p3940
aVprimary
p3941
aVloc_ref
p3942
aV100 E
p3943
asbag1
(g2
g3
Ntp3944
Rp3945
(dp3946
g7
(lp3947
L269446292L
aL740363360L
aL740363361L
aL740363362L
aL2819167158L
aL269446285L
asg9
(lp3948
I9
aI9
asg11
L48785123L
sg12
(lp3949
Vname
p3950
aVNorth Michigan Avenue
p3951
aVlayer
p3952
aV1
p3953
aVoneway
p3954
aVyes
p3955
aVhighway
p3956
aVprimary
p3957
aVloc_ref
p3958
aV100 E
p3959
asbag1
(g2
g3
Ntp3960
Rp3961
(dp3962
g7
(lp3963
L27446500L
aL740363363L
aL740363364L
aL28358991L
asg9
(lp3964
I8
aI9
asg11
L255370137L
sg12
(lp3965
Vname
p3966
aVNorth Michigan Avenue
p3967
aVlayer
p3968
aV1
p3969
aVoneway
p3970
aVyes
p3971
aVhighway
p3972
aVprimary
p3973
aVloc_ref
p3974
aV100 E
p3975
asbag1
(g2
g3
Ntp3976
Rp3977
(dp3978
g7
(lp3979
L27446500L
aL740363363L
aL740363364L
aL28358991L
asg9
(lp3980
I9
aI9
asg11
L255370137L
sg12
(lp3981
Vname
p3982
aVNorth Michigan Avenue
p3983
aVlayer
p3984
aV1
p3985
aVoneway
p3986
aVyes
p3987
aVhighway
p3988
aVprimary
p3989
aVloc_ref
p3990
aV100 E
p3991
asbag1
(g2
g3
Ntp3992
Rp3993
(dp3994
g7
(lp3995
L3884752869L
aL931259982L
aL931259976L
aL271175339L
aL619647952L
aL3257711547L
aL3257711546L
aL27721250L
asg9
(lp3996
I11
aI11
asg11
L79785857L
sg12
(lp3997
Vname
p3998
aVNorth Michigan Avenue
p3999
aVlayer
p4000
aV1
p4001
aVoneway
p4002
aVyes
p4003
aVhighway
p4004
aVprimary
p4005
aVloc_ref
p4006
aV100 E
p4007
asbag1
(g2
g3
Ntp4008
Rp4009
(dp4010
g7
(lp4011
L3884752869L
aL931259982L
aL931259976L
aL271175339L
aL619647952L
aL3257711547L
aL3257711546L
aL27721250L
asg9
(lp4012
I11
aI11
asg11
L79785857L
sg12
(lp4013
Vname
p4014
aVNorth Michigan Avenue
p4015
aVlayer
p4016
aV1
p4017
aVoneway
p4018
aVyes
p4019
aVhighway
p4020
aVprimary
p4021
aVloc_ref
p4022
aV100 E
p4023
asbag1
(g2
g3
Ntp4024
Rp4025
(dp4026
g7
(lp4027
L27721221L
aL2398529871L
aL2395425329L
aL369890733L
aL369890812L
aL736917894L
aL27721224L
aL2395425330L
aL736862003L
aL931260010L
aL736860897L
aL3884752869L
asg9
(lp4028
I11
aI11
asg11
L4519037L
sg12
(lp4029
Vname
p4030
aVNorth Michigan Avenue
p4031
aVlayer
p4032
aV1
p4033
aVoneway
p4034
aVyes
p4035
aVhighway
p4036
aVprimary
p4037
aVloc_ref
p4038
aV100 E
p4039
asbag1
(g2
g3
Ntp4040
Rp4041
(dp4042
g7
(lp4043
L27446502L
aL939896712L
aL258021042L
asg9
(lp4044
I10
aI10
asg11
L230775772L
sg12
(lp4045
Vname
p4046
aVNorth Michigan Avenue
p4047
aVlayer
p4048
aV1
p4049
aVoneway
p4050
aVyes
p4051
aVhighway
p4052
aVprimary
p4053
aVloc_ref
p4054
aV100 E
p4055
asbag1
(g2
g3
Ntp4056
Rp4057
(dp4058
g7
(lp4059
L26794402L
aL1439614216L
aL26794403L
aL26794404L
aL1439614217L
aL26794405L
aL26794407L
aL1439614213L
aL26794416L
aL1052620524L
aL26794418L
aL26794420L
aL1439614207L
aL26794422L
aL1052620526L
aL260080588L
asg9
(lp4060
I17
aI17
asg11
L23852376L
sg12
(lp4061
VNHS
p4062
aVyes
p4063
aVhgv
p4064
aVno
p4065
aVref
p4066
aVUS 41
p4067
aVname
p4068
aVNorth Lake Shore Drive
p4069
aVlanes
p4070
aV4
p4071
aVoneway
p4072
aVyes
p4073
aVhighway
p4074
aVtrunk
p4075
aVmaxspeed
p4076
aV40 mph
p4077
asbag1
(g2
g3
Ntp4078
Rp4079
(dp4080
g7
(lp4081
L26794402L
aL1439614216L
aL26794403L
aL26794404L
aL1439614217L
aL26794405L
aL26794407L
aL1439614213L
aL26794416L
aL1052620524L
aL26794418L
aL26794420L
aL1439614207L
aL26794422L
aL1052620526L
aL260080588L
asg9
(lp4082
I17
aI17
asg11
L23852376L
sg12
(lp4083
VNHS
p4084
aVyes
p4085
aVhgv
p4086
aVno
p4087
aVref
p4088
aVUS 41
p4089
aVname
p4090
aVNorth Lake Shore Drive
p4091
aVlanes
p4092
aV4
p4093
aVoneway
p4094
aVyes
p4095
aVhighway
p4096
aVtrunk
p4097
aVmaxspeed
p4098
aV40 mph
p4099
asbag1
(g2
g3
Ntp4100
Rp4101
(dp4102
g7
(lp4103
L250278912L
aL262077310L
aL2642873515L
aL286900245L
aL286900249L
aL2328702573L
aL4069458195L
aL286900268L
aL2328702613L
aL2328702688L
aL1257584223L
aL286900184L
aL1844566211L
aL286900185L
aL1844566113L
aL286900186L
aL286900187L
aL1844566159L
aL2206162371L
aL2174877698L
aL286900188L
aL339269476L
aL1610885999L
aL339269514L
aL2174877452L
aL424329169L
aL2206168484L
aL102825447L
asg9
(lp4104
I29
aI30
asg11
L57355727L
sg12
(lp4105
Vname
p4106
aVNorth Sheridan Road
p4107
aVlanes
p4108
aV2
p4109
aVoneway
p4110
aVno
p4111
aVhighway
p4112
aVprimary
p4113
asbag1
(g2
g3
Ntp4114
Rp4115
(dp4116
g7
(lp4117
L712839669L
aL712839675L
aL712839674L
aL1293577386L
aL261146197L
asg9
(lp4118
I47
aI48
asg11
L317625745L
sg12
(lp4119
Vname
p4120
aVWest Howard Street
p4121
aVlayer
p4122
aV0
p4123
aVhighway
p4124
aVsecondary
p4125
aVloc_ref
p4126
aV7600 N
p4127
aVsidewalk
p4128
aVboth
p4129
asbag1
(g2
g3
Ntp4130
Rp4131
(dp4132
g7
(lp4133
L26794402L
aL1439614216L
aL26794403L
aL26794404L
aL1439614217L
aL26794405L
aL26794407L
aL1439614213L
aL26794416L
aL1052620524L
aL26794418L
aL26794420L
aL1439614207L
aL26794422L
aL1052620526L
aL260080588L
asg9
(lp4134
I17
aI17
asg11
L23852376L
sg12
(lp4135
VNHS
p4136
aVyes
p4137
aVhgv
p4138
aVno
p4139
aVref
p4140
aVUS 41
p4141
aVname
p4142
aVNorth Lake Shore Drive
p4143
aVlanes
p4144
aV4
p4145
aVoneway
p4146
aVyes
p4147
aVhighway
p4148
aVtrunk
p4149
aVmaxspeed
p4150
aV40 mph
p4151
asbag1
(g2
g3
Ntp4152
Rp4153
(dp4154
g7
(lp4155
L26794402L
aL1439614216L
aL26794403L
aL26794404L
aL1439614217L
aL26794405L
aL26794407L
aL1439614213L
aL26794416L
aL1052620524L
aL26794418L
aL26794420L
aL1439614207L
aL26794422L
aL1052620526L
aL260080588L
asg9
(lp4156
I17
aI17
asg11
L23852376L
sg12
(lp4157
VNHS
p4158
aVyes
p4159
aVhgv
p4160
aVno
p4161
aVref
p4162
aVUS 41
p4163
aVname
p4164
aVNorth Lake Shore Drive
p4165
aVlanes
p4166
aV4
p4167
aVoneway
p4168
aVyes
p4169
aVhighway
p4170
aVtrunk
p4171
aVmaxspeed
p4172
aV40 mph
p4173
asbag1
(g2
g3
Ntp4174
Rp4175
(dp4176
g7
(lp4177
L26794402L
aL1439614216L
aL26794403L
aL26794404L
aL1439614217L
aL26794405L
aL26794407L
aL1439614213L
aL26794416L
aL1052620524L
aL26794418L
aL26794420L
aL1439614207L
aL26794422L
aL1052620526L
aL260080588L
asg9
(lp4178
I17
aI17
asg11
L23852376L
sg12
(lp4179
VNHS
p4180
aVyes
p4181
aVhgv
p4182
aVno
p4183
aVref
p4184
aVUS 41
p4185
aVname
p4186
aVNorth Lake Shore Drive
p4187
aVlanes
p4188
aV4
p4189
aVoneway
p4190
aVyes
p4191
aVhighway
p4192
aVtrunk
p4193
aVmaxspeed
p4194
aV40 mph
p4195
asbag1
(g2
g3
Ntp4196
Rp4197
(dp4198
g7
(lp4199
L26794402L
aL1439614216L
aL26794403L
aL26794404L
aL1439614217L
aL26794405L
aL26794407L
aL1439614213L
aL26794416L
aL1052620524L
aL26794418L
aL26794420L
aL1439614207L
aL26794422L
aL1052620526L
aL260080588L
asg9
(lp4200
I17
aI17
asg11
L23852376L
sg12
(lp4201
VNHS
p4202
aVyes
p4203
aVhgv
p4204
aVno
p4205
aVref
p4206
aVUS 41
p4207
aVname
p4208
aVNorth Lake Shore Drive
p4209
aVlanes
p4210
aV4
p4211
aVoneway
p4212
aVyes
p4213
aVhighway
p4214
aVtrunk
p4215
aVmaxspeed
p4216
aV40 mph
p4217
asbag1
(g2
g3
Ntp4218
Rp4219
(dp4220
g7
(lp4221
L1491768416L
aL4072793303L
aL2214404156L
aL4065598140L
aL250278912L
asg9
(lp4222
I24
aI24
asg11
L404291523L
sg12
(lp4223
Vname
p4224
aVNorth Sheridan Road
p4225
aVoneway
p4226
aVno
p4227
aVhighway
p4228
aVsecondary
p4229
aVtiger:cfcc
p4230
aVA41
p4231
aVtiger:county
p4232
aVCook, IL
p4233
aVtiger:reviewed
p4234
aVno
p4235
aVtiger:zip_left
p4236
aV60626
p4237
aVtiger:name_base
p4238
aVSheridan
p4239
aVtiger:name_type
p4240
aVRd
p4241
aVtiger:zip_right
p4242
aV60626
p4243
aVtiger:name_direction_prefix
p4244
aVN
p4245
asbag1
(g2
g3
Ntp4246
Rp4247
(dp4248
g7
(lp4249
L1531380379L
aL1491768416L
asg9
(lp4250
I24
aI24
asg11
L404291522L
sg12
(lp4251
Vname
p4252
aVNorth Sheridan Road
p4253
aVoneway
p4254
aVno
p4255
aVhighway
p4256
aVsecondary
p4257
aVtiger:cfcc
p4258
aVA41
p4259
aVtiger:county
p4260
aVCook, IL
p4261
aVtiger:reviewed
p4262
aVno
p4263
aVtiger:zip_left
p4264
aV60626
p4265
aVtiger:name_base
p4266
aVSheridan
p4267
aVtiger:name_type
p4268
aVRd
p4269
aVtiger:zip_right
p4270
aV60626
p4271
aVtiger:name_direction_prefix
p4272
aVN
p4273
asbag1
(g2
g3
Ntp4274
Rp4275
(dp4276
g7
(lp4277
L250278912L
aL262077310L
aL2642873515L
aL286900245L
aL286900249L
aL2328702573L
aL4069458195L
aL286900268L
aL2328702613L
aL2328702688L
aL1257584223L
aL286900184L
aL1844566211L
aL286900185L
aL1844566113L
aL286900186L
aL286900187L
aL1844566159L
aL2206162371L
aL2174877698L
aL286900188L
aL339269476L
aL1610885999L
aL339269514L
aL2174877452L
aL424329169L
aL2206168484L
aL102825447L
asg9
(lp4278
I31
aI31
asg11
L57355727L
sg12
(lp4279
Vname
p4280
aVNorth Sheridan Road
p4281
aVlanes
p4282
aV2
p4283
aVoneway
p4284
aVno
p4285
aVhighway
p4286
aVprimary
p4287
asbag1
(g2
g3
Ntp4288
Rp4289
(dp4290
g7
(lp4291
L27440482L
aL1648217755L
aL736864190L
aL713334463L
aL3191766362L
aL27440481L
aL3191766365L
aL736864191L
aL713334464L
aL736864193L
aL3191763969L
aL27440480L
aL3191763967L
aL2396299124L
aL2396293695L
aL2422420957L
aL2396293696L
aL2396300353L
aL3191763963L
aL27440479L
aL3191762973L
aL3191762971L
aL27440478L
aL3191762967L
aL713312029L
asg9
(lp4292
I14
aI14
asg11
L106783557L
sg12
(lp4293
Vname
p4294
aVNorth Michigan Avenue
p4295
aVoneway
p4296
aVyes
p4297
aVhighway
p4298
aVprimary
p4299
asbag1
(g2
g3
Ntp4300
Rp4301
(dp4302
g7
(lp4303
L261146197L
aL261265643L
aL261308247L
aL261118345L
aL1752618573L
aL261267391L
aL261325497L
aL261280502L
aL261293538L
aL261325493L
aL261289106L
asg9
(lp4304
I45
aI45
asg11
L317625746L
sg12
(lp4305
Vname
p4306
aVNorth Sheridan Road
p4307
aVlanes
p4308
aV2
p4309
aVoneway
p4310
aVno
p4311
aVhighway
p4312
aVprimary
p4313
asbag1
(g2
g3
Ntp4314
Rp4315
(dp4316
g7
(lp4317
L250278912L
aL262077310L
aL2642873515L
aL286900245L
aL286900249L
aL2328702573L
aL4069458195L
aL286900268L
aL2328702613L
aL2328702688L
aL1257584223L
aL286900184L
aL1844566211L
aL286900185L
aL1844566113L
aL286900186L
aL286900187L
aL1844566159L
aL2206162371L
aL2174877698L
aL286900188L
aL339269476L
aL1610885999L
aL339269514L
aL2174877452L
aL424329169L
aL2206168484L
aL102825447L
asg9
(lp4318
I30
aI30
asg11
L57355727L
sg12
(lp4319
Vname
p4320
aVNorth Sheridan Road
p4321
aVlanes
p4322
aV2
p4323
aVoneway
p4324
aVno
p4325
aVhighway
p4326
aVprimary
p4327
asbag1
(g2
g3
Ntp4328
Rp4329
(dp4330
g7
(lp4331
L250278912L
aL262077310L
aL2642873515L
aL286900245L
aL286900249L
aL2328702573L
aL4069458195L
aL286900268L
aL2328702613L
aL2328702688L
aL1257584223L
aL286900184L
aL1844566211L
aL286900185L
aL1844566113L
aL286900186L
aL286900187L
aL1844566159L
aL2206162371L
aL2174877698L
aL286900188L
aL339269476L
aL1610885999L
aL339269514L
aL2174877452L
aL424329169L
aL2206168484L
aL102825447L
asg9
(lp4332
I30
aI30
asg11
L57355727L
sg12
(lp4333
Vname
p4334
aVNorth Sheridan Road
p4335
aVlanes
p4336
aV2
p4337
aVoneway
p4338
aVno
p4339
aVhighway
p4340
aVprimary
p4341
asbag1
(g2
g3
Ntp4342
Rp4343
(dp4344
g7
(lp4345
L709412789L
aL2787305624L
aL1884311493L
aL709412743L
aL709412759L
aL388608183L
asg9
(lp4346
I2
aI2
asg11
L236157125L
sg12
(lp4347
Vname
p4348
aVEast Congress Parkway
p4349
aVoneway
p4350
aVyes
p4351
aVhighway
p4352
aVprimary
p4353
aVloc_ref
p4354
aV500 S
p4355
aVsidewalk
p4356
aVright
p4357
asbag1
(g2
g3
Ntp4358
Rp4359
(dp4360
g7
(lp4361
L257108196L
aL2256944414L
aL158733117L
aL4065790502L
aL1980577617L
aL2174877770L
aL4065973073L
aL158733116L
asg9
(lp4362
I17
aI17
asg11
L51878127L
sg12
(lp4363
Vref
p4364
aVUS 41
p4365
aVname
p4366
aVWest Foster Avenue
p4367
aVlanes
p4368
aV4
p4369
aVhighway
p4370
aVsecondary
p4371
asbag1
(g2
g3
Ntp4372
Rp4373
(dp4374
g7
(lp4375
L250278912L
aL262077310L
aL2642873515L
aL286900245L
aL286900249L
aL2328702573L
aL4069458195L
aL286900268L
aL2328702613L
aL2328702688L
aL1257584223L
aL286900184L
aL1844566211L
aL286900185L
aL1844566113L
aL286900186L
aL286900187L
aL1844566159L
aL2206162371L
aL2174877698L
aL286900188L
aL339269476L
aL1610885999L
aL339269514L
aL2174877452L
aL424329169L
aL2206168484L
aL102825447L
asg9
(lp4376
I32
aI32
asg11
L57355727L
sg12
(lp4377
Vname
p4378
aVNorth Sheridan Road
p4379
aVlanes
p4380
aV2
p4381
aVoneway
p4382
aVno
p4383
aVhighway
p4384
aVprimary
p4385
asbag1
(g2
g3
Ntp4386
Rp4387
(dp4388
g7
(lp4389
L250278912L
aL262077310L
aL2642873515L
aL286900245L
aL286900249L
aL2328702573L
aL4069458195L
aL286900268L
aL2328702613L
aL2328702688L
aL1257584223L
aL286900184L
aL1844566211L
aL286900185L
aL1844566113L
aL286900186L
aL286900187L
aL1844566159L
aL2206162371L
aL2174877698L
aL286900188L
aL339269476L
aL1610885999L
aL339269514L
aL2174877452L
aL424329169L
aL2206168484L
aL102825447L
asg9
(lp4390
I30
aI30
asg11
L57355727L
sg12
(lp4391
Vname
p4392
aVNorth Sheridan Road
p4393
aVlanes
p4394
aV2
p4395
aVoneway
p4396
aVno
p4397
aVhighway
p4398
aVprimary
p4399
asbag1
(g2
g3
Ntp4400
Rp4401
(dp4402
g7
(lp4403
L257108196L
aL2256944414L
aL158733117L
aL4065790502L
aL1980577617L
aL2174877770L
aL4065973073L
aL158733116L
asg9
(lp4404
I17
aI17
asg11
L51878127L
sg12
(lp4405
Vref
p4406
aVUS 41
p4407
aVname
p4408
aVWest Foster Avenue
p4409
aVlanes
p4410
aV4
p4411
aVhighway
p4412
aVsecondary
p4413
asbag1
(g2
g3
Ntp4414
Rp4415
(dp4416
g7
(lp4417
L261117414L
aL2226564929L
aL261226270L
aL261198152L
aL261242504L
aL261325492L
aL261294461L
aL261325491L
aL1257572572L
aL2206053604L
aL261325501L
aL2226676801L
aL3242152385L
aL102825447L
asg9
(lp4418
I34
aI34
asg11
L313291438L
sg12
(lp4419
Vname
p4420
aVNorth Sheridan Road
p4421
aVlanes
p4422
aV2
p4423
aVoneway
p4424
aVno
p4425
aVhighway
p4426
aVprimary
p4427
asbag1
(g2
g3
Ntp4428
Rp4429
(dp4430
g7
(lp4431
L250278912L
aL262077310L
aL2642873515L
aL286900245L
aL286900249L
aL2328702573L
aL4069458195L
aL286900268L
aL2328702613L
aL2328702688L
aL1257584223L
aL286900184L
aL1844566211L
aL286900185L
aL1844566113L
aL286900186L
aL286900187L
aL1844566159L
aL2206162371L
aL2174877698L
aL286900188L
aL339269476L
aL1610885999L
aL339269514L
aL2174877452L
aL424329169L
aL2206168484L
aL102825447L
asg9
(lp4432
I30
aI30
asg11
L57355727L
sg12
(lp4433
Vname
p4434
aVNorth Sheridan Road
p4435
aVlanes
p4436
aV2
p4437
aVoneway
p4438
aVno
p4439
aVhighway
p4440
aVprimary
p4441
asbag1
(g2
g3
Ntp4442
Rp4443
(dp4444
g7
(lp4445
L2395940339L
aL4065973895L
aL2213402523L
aL2394540265L
aL4065973062L
aL257097046L
asg9
(lp4446
I18
aI18
asg11
L121165691L
sg12
(lp4447
Vref
p4448
aVUS 41
p4449
aVname
p4450
aVWest Foster Avenue
p4451
aVlanes
p4452
aV3
p4453
aVhighway
p4454
aVsecondary
p4455
asbag1
(g2
g3
Ntp4456
Rp4457
(dp4458
g7
(lp4459
L26794449L
aL2213814392L
aL26794450L
asg9
(lp4460
I17
aI17
asg11
L374037402L
sg12
(lp4461
VNHS
p4462
aVyes
p4463
aVhgv
p4464
aVno
p4465
aVref
p4466
aVUS 41
p4467
aVname
p4468
aVNorth Lake Shore Drive
p4469
aVlanes
p4470
aV4
p4471
aVoneway
p4472
aVyes
p4473
aVhighway
p4474
aVtrunk
p4475
asbag1
(g2
g3
Ntp4476
Rp4477
(dp4478
g7
(lp4479
L1491768416L
aL4072793303L
aL2214404156L
aL4065598140L
aL250278912L
asg9
(lp4480
I24
aI25
asg11
L404291523L
sg12
(lp4481
Vname
p4482
aVNorth Sheridan Road
p4483
aVoneway
p4484
aVno
p4485
aVhighway
p4486
aVsecondary
p4487
aVtiger:cfcc
p4488
aVA41
p4489
aVtiger:county
p4490
aVCook, IL
p4491
aVtiger:reviewed
p4492
aVno
p4493
aVtiger:zip_left
p4494
aV60626
p4495
aVtiger:name_base
p4496
aVSheridan
p4497
aVtiger:name_type
p4498
aVRd
p4499
aVtiger:zip_right
p4500
aV60626
p4501
aVtiger:name_direction_prefix
p4502
aVN
p4503
asbag1
(g2
g3
Ntp4504
Rp4505
(dp4506
g7
(lp4507
L261117414L
aL2226564929L
aL261226270L
aL261198152L
aL261242504L
aL261325492L
aL261294461L
aL261325491L
aL1257572572L
aL2206053604L
aL261325501L
aL2226676801L
aL3242152385L
aL102825447L
asg9
(lp4508
I38
aI38
asg11
L313291438L
sg12
(lp4509
Vname
p4510
aVNorth Sheridan Road
p4511
aVlanes
p4512
aV2
p4513
aVoneway
p4514
aVno
p4515
aVhighway
p4516
aVprimary
p4517
asbag1
(g2
g3
Ntp4518
Rp4519
(dp4520
g7
(lp4521
L261117414L
aL2226564929L
aL261226270L
aL261198152L
aL261242504L
aL261325492L
aL261294461L
aL261325491L
aL1257572572L
aL2206053604L
aL261325501L
aL2226676801L
aL3242152385L
aL102825447L
asg9
(lp4522
I32
aI33
asg11
L313291438L
sg12
(lp4523
Vname
p4524
aVNorth Sheridan Road
p4525
aVlanes
p4526
aV2
p4527
aVoneway
p4528
aVno
p4529
aVhighway
p4530
aVprimary
p4531
asbag1
(g2
g3
Ntp4532
Rp4533
(dp4534
g7
(lp4535
L257109633L
aL257109691L
aL257109692L
aL257109693L
aL2256944378L
aL4065790499L
aL257108196L
asg9
(lp4536
I17
aI17
asg11
L23740750L
sg12
(lp4537
Vhgv
p4538
aVno
p4539
aVref
p4540
aVUS 41
p4541
aVlanes
p4542
aV1
p4543
aVoneway
p4544
aVyes
p4545
aVhighway
p4546
aVtrunk_link
p4547
asbag1
(g2
g3
Ntp4548
Rp4549
(dp4550
g7
(lp4551
L257108196L
aL2256944414L
aL158733117L
aL4065790502L
aL1980577617L
aL2174877770L
aL4065973073L
aL158733116L
asg9
(lp4552
I17
aI17
asg11
L51878127L
sg12
(lp4553
Vref
p4554
aVUS 41
p4555
aVname
p4556
aVWest Foster Avenue
p4557
aVlanes
p4558
aV4
p4559
aVhighway
p4560
aVsecondary
p4561
asbag1
(g2
g3
Ntp4562
Rp4563
(dp4564
g7
(lp4565
L250278912L
aL262077310L
aL2642873515L
aL286900245L
aL286900249L
aL2328702573L
aL4069458195L
aL286900268L
aL2328702613L
aL2328702688L
aL1257584223L
aL286900184L
aL1844566211L
aL286900185L
aL1844566113L
aL286900186L
aL286900187L
aL1844566159L
aL2206162371L
aL2174877698L
aL286900188L
aL339269476L
aL1610885999L
aL339269514L
aL2174877452L
aL424329169L
aL2206168484L
aL102825447L
asg9
(lp4566
I27
aI28
asg11
L57355727L
sg12
(lp4567
Vname
p4568
aVNorth Sheridan Road
p4569
aVlanes
p4570
aV2
p4571
aVoneway
p4572
aVno
p4573
aVhighway
p4574
aVprimary
p4575
asbag1
(g2
g3
Ntp4576
Rp4577
(dp4578
g7
(lp4579
L250278912L
aL262077310L
aL2642873515L
aL286900245L
aL286900249L
aL2328702573L
aL4069458195L
aL286900268L
aL2328702613L
aL2328702688L
aL1257584223L
aL286900184L
aL1844566211L
aL286900185L
aL1844566113L
aL286900186L
aL286900187L
aL1844566159L
aL2206162371L
aL2174877698L
aL286900188L
aL339269476L
aL1610885999L
aL339269514L
aL2174877452L
aL424329169L
aL2206168484L
aL102825447L
asg9
(lp4580
I28
aI28
asg11
L57355727L
sg12
(lp4581
Vname
p4582
aVNorth Sheridan Road
p4583
aVlanes
p4584
aV2
p4585
aVoneway
p4586
aVno
p4587
aVhighway
p4588
aVprimary
p4589
asbag1
(g2
g3
Ntp4590
Rp4591
(dp4592
g7
(lp4593
L250278912L
aL262077310L
aL2642873515L
aL286900245L
aL286900249L
aL2328702573L
aL4069458195L
aL286900268L
aL2328702613L
aL2328702688L
aL1257584223L
aL286900184L
aL1844566211L
aL286900185L
aL1844566113L
aL286900186L
aL286900187L
aL1844566159L
aL2206162371L
aL2174877698L
aL286900188L
aL339269476L
aL1610885999L
aL339269514L
aL2174877452L
aL424329169L
aL2206168484L
aL102825447L
asg9
(lp4594
I28
aI29
asg11
L57355727L
sg12
(lp4595
Vname
p4596
aVNorth Sheridan Road
p4597
aVlanes
p4598
aV2
p4599
aVoneway
p4600
aVno
p4601
aVhighway
p4602
aVprimary
p4603
asbag1
(g2
g3
Ntp4604
Rp4605
(dp4606
g7
(lp4607
L27440221L
aL2390754622L
aL2390619213L
aL27440235L
asg9
(lp4608
I4
aI4
asg11
L328987166L
sg12
(lp4609
Vname
p4610
aVSouth State Street
p4611
aVlanes
p4612
aV4
p4613
aVhighway
p4614
aVprimary
p4615
aVloc_ref
p4616
aV0 - E & W
p4617
asbag1
(g2
g3
Ntp4618
Rp4619
(dp4620
g7
(lp4621
L27440221L
aL2390754622L
aL2390619213L
aL27440235L
asg9
(lp4622
I4
aI4
asg11
L328987166L
sg12
(lp4623
Vname
p4624
aVSouth State Street
p4625
aVlanes
p4626
aV4
p4627
aVhighway
p4628
aVprimary
p4629
aVloc_ref
p4630
aV0 - E & W
p4631
asbag1
(g2
g3
Ntp4632
Rp4633
(dp4634
g7
(lp4635
L1388390343L
aL1388390285L
aL2396916040L
aL2396910969L
aL2390993549L
aL28289299L
aL4156112932L
aL2391003237L
aL1388390343L
asg9
(lp4636
I6
aI6
asg11
L231290343L
sg12
(lp4637
Varea
p4638
aVyes
p4639
aVhighway
p4640
aVpedestrian
p4641
asbag1
(g2
g3
Ntp4642
Rp4643
(dp4644
g7
(lp4645
L28290277L
aL3211798021L
aL2391030903L
aL2391027633L
aL740260072L
aL2391027639L
aL3211798020L
aL4156112934L
aL28289299L
asg9
(lp4646
I6
aI6
asg11
L315089479L
sg12
(lp4647
Vname
p4648
aVNorth Dearborn Street
p4649
aVbench
p4650
aVyes
p4651
aVoneway
p4652
aV-1
p4653
aVhighway
p4654
aVsecondary
p4655
aVloc_ref
p4656
aV50 W
p4657
aVshelter
p4658
aVno
p4659
aVoperator
p4660
aVChicago Transit Authority
p4661
asbag1
(g2
g3
Ntp4662
Rp4663
(dp4664
g7
(lp4665
L28290277L
aL3211798021L
aL2391030903L
aL2391027633L
aL740260072L
aL2391027639L
aL3211798020L
aL4156112934L
aL28289299L
asg9
(lp4666
I6
aI6
asg11
L315089479L
sg12
(lp4667
Vname
p4668
aVNorth Dearborn Street
p4669
aVbench
p4670
aVyes
p4671
aVoneway
p4672
aV-1
p4673
aVhighway
p4674
aVsecondary
p4675
aVloc_ref
p4676
aV50 W
p4677
aVshelter
p4678
aVno
p4679
aVoperator
p4680
aVChicago Transit Authority
p4681
asbag1
(g2
g3
Ntp4682
Rp4683
(dp4684
g7
(lp4685
L28290256L
aL4156112895L
aL740260178L
aL2391120252L
aL4156112907L
aL27446756L
asg9
(lp4686
I7
aI7
asg11
L151989531L
sg12
(lp4687
Vname
p4688
aVEast Washington Street
p4689
aVbusway
p4690
aVlane
p4691
aVoneway
p4692
aVyes
p4693
aVbicycle
p4694
aVdesignated
p4695
aVhighway
p4696
aVprimary
p4697
aVloc_ref
p4698
aV100 N
p4699
aVcycleway
p4700
aVtrack
p4701
aVsidewalk
p4702
aVboth
p4703
asbag1
(g2
g3
Ntp4704
Rp4705
(dp4706
g7
(lp4707
L258958980L
aL4156112537L
aL740271864L
aL2391131208L
aL740271865L
aL740271866L
aL258957360L
asg9
(lp4708
I7
aI7
asg11
L145846237L
sg12
(lp4709
Vname
p4710
aVNorth Michigan Avenue
p4711
aVoneway
p4712
aVyes
p4713
aVhighway
p4714
aVprimary
p4715
aVloc_ref
p4716
aV100 E
p4717
asbag1
(g2
g3
Ntp4718
Rp4719
(dp4720
g7
(lp4721
L27446720L
aL27446709L
aL740243555L
aL27446708L
aL2392113522L
aL740243676L
aL2392113519L
aL27440221L
asg9
(lp4722
I4
aI4
asg11
L23887717L
sg12
(lp4723
Vname
p4724
aVSouth State Street
p4725
aVlanes
p4726
aV4
p4727
aVhighway
p4728
aVprimary
p4729
aVloc_ref
p4730
aV0 - E & W
p4731
asbag1
(g2
g3
Ntp4732
Rp4733
(dp4734
g7
(lp4735
L27446720L
aL27446709L
aL740243555L
aL27446708L
aL2392113522L
aL740243676L
aL2392113519L
aL27440221L
asg9
(lp4736
I4
aI4
asg11
L23887717L
sg12
(lp4737
Vname
p4738
aVSouth State Street
p4739
aVlanes
p4740
aV4
p4741
aVhighway
p4742
aVprimary
p4743
aVloc_ref
p4744
aV0 - E & W
p4745
asbag1
(g2
g3
Ntp4746
Rp4747
(dp4748
g7
(lp4749
L258957360L
aL2393971333L
aL2423721320L
aL2423717292L
aL27446500L
asg9
(lp4750
I8
aI8
asg11
L230975353L
sg12
(lp4751
Vname
p4752
aVNorth Michigan Avenue
p4753
aVlayer
p4754
aV1
p4755
aVoneway
p4756
aVyes
p4757
aVhighway
p4758
aVprimary
p4759
aVloc_ref
p4760
aV100 E
p4761
asbag1
(g2
g3
Ntp4762
Rp4763
(dp4764
g7
(lp4765
L2395940339L
aL4065973895L
aL2213402523L
aL2394540265L
aL4065973062L
aL257097046L
asg9
(lp4766
I17
aI18
asg11
L121165691L
sg12
(lp4767
Vref
p4768
aVUS 41
p4769
aVname
p4770
aVWest Foster Avenue
p4771
aVlanes
p4772
aV3
p4773
aVhighway
p4774
aVsecondary
p4775
asbag1
(g2
g3
Ntp4776
Rp4777
(dp4778
g7
(lp4779
L257146995L
aL257121401L
aL2394561325L
aL257170011L
aL3660938551L
aL2394540344L
aL2783790293L
aL257170271L
aL2783790294L
aL4072793308L
aL1531380379L
asg9
(lp4780
I22
aI23
asg11
L317622791L
sg12
(lp4781
Vname
p4782
aVNorth Sheridan Road
p4783
aVoneway
p4784
aVno
p4785
aVhighway
p4786
aVsecondary
p4787
aVtiger:cfcc
p4788
aVA41
p4789
aVtiger:county
p4790
aVCook, IL
p4791
aVtiger:reviewed
p4792
aVno
p4793
aVtiger:zip_left
p4794
aV60626
p4795
aVtiger:name_base
p4796
aVSheridan
p4797
aVtiger:name_type
p4798
aVRd
p4799
aVtiger:zip_right
p4800
aV60626
p4801
aVtiger:name_direction_prefix
p4802
aVN
p4803
asbag1
(g2
g3
Ntp4804
Rp4805
(dp4806
g7
(lp4807
L2394561325L
aL2394561334L
aL2394561328L
aL2394561337L
aL2394561336L
aL2394561329L
aL2394561339L
aL2394561327L
aL2394561342L
aL2394561341L
aL2394561344L
aL257170011L
asg9
(lp4808
I21
aI21
asg11
L231037629L
sg12
(lp4809
Voneway
p4810
aVyes
p4811
aVhighway
p4812
aVservice
p4813
aVservice
p4814
aVdriveway
p4815
asbag1
(g2
g3
Ntp4816
Rp4817
(dp4818
g7
(lp4819
L27721221L
aL2398529871L
aL2395425329L
aL369890733L
aL369890812L
aL736917894L
aL27721224L
aL2395425330L
aL736862003L
aL931260010L
aL736860897L
aL3884752869L
asg9
(lp4820
I10
aI10
asg11
L4519037L
sg12
(lp4821
Vname
p4822
aVNorth Michigan Avenue
p4823
aVlayer
p4824
aV1
p4825
aVoneway
p4826
aVyes
p4827
aVhighway
p4828
aVprimary
p4829
aVloc_ref
p4830
aV100 E
p4831
asbag1
(g2
g3
Ntp4832
Rp4833
(dp4834
g7
(lp4835
L27721221L
aL2398529871L
aL2395425329L
aL369890733L
aL369890812L
aL736917894L
aL27721224L
aL2395425330L
aL736862003L
aL931260010L
aL736860897L
aL3884752869L
asg9
(lp4836
I10
aI11
asg11
L4519037L
sg12
(lp4837
Vname
p4838
aVNorth Michigan Avenue
p4839
aVlayer
p4840
aV1
p4841
aVoneway
p4842
aVyes
p4843
aVhighway
p4844
aVprimary
p4845
aVloc_ref
p4846
aV100 E
p4847
asbag1
(g2
g3
Ntp4848
Rp4849
(dp4850
g7
(lp4851
L257146995L
aL4065973898L
aL2395940339L
asg9
(lp4852
I18
aI18
asg11
L312151468L
sg12
(lp4853
Vname
p4854
aVNorth Sheridan Road
p4855
aVoneway
p4856
aVno
p4857
aVhighway
p4858
aVsecondary
p4859
aVtiger:cfcc
p4860
aVA41
p4861
aVtiger:county
p4862
aVCook, IL
p4863
aVtiger:reviewed
p4864
aVno
p4865
aVtiger:zip_left
p4866
aV60626
p4867
aVtiger:name_base
p4868
aVSheridan
p4869
aVtiger:name_type
p4870
aVRd
p4871
aVtiger:zip_right
p4872
aV60626
p4873
aVtiger:name_direction_prefix
p4874
aVN
p4875
asbag1
(g2
g3
Ntp4876
Rp4877
(dp4878
g7
(lp4879
L27440482L
aL1648217755L
aL736864190L
aL713334463L
aL3191766362L
aL27440481L
aL3191766365L
aL736864191L
aL713334464L
aL736864193L
aL3191763969L
aL27440480L
aL3191763967L
aL2396299124L
aL2396293695L
aL2422420957L
aL2396293696L
aL2396300353L
aL3191763963L
aL27440479L
aL3191762973L
aL3191762971L
aL27440478L
aL3191762967L
aL713312029L
asg9
(lp4880
I15
aI15
asg11
L106783557L
sg12
(lp4881
Vname
p4882
aVNorth Michigan Avenue
p4883
aVoneway
p4884
aVyes
p4885
aVhighway
p4886
aVprimary
p4887
asbag1
(g2
g3
Ntp4888
Rp4889
(dp4890
g7
(lp4891
L27440482L
aL1648217755L
aL736864190L
aL713334463L
aL3191766362L
aL27440481L
aL3191766365L
aL736864191L
aL713334464L
aL736864193L
aL3191763969L
aL27440480L
aL3191763967L
aL2396299124L
aL2396293695L
aL2422420957L
aL2396293696L
aL2396300353L
aL3191763963L
aL27440479L
aL3191762973L
aL3191762971L
aL27440478L
aL3191762967L
aL713312029L
asg9
(lp4892
I15
aI15
asg11
L106783557L
sg12
(lp4893
Vname
p4894
aVNorth Michigan Avenue
p4895
aVoneway
p4896
aVyes
p4897
aVhighway
p4898
aVprimary
p4899
asbag1
(g2
g3
Ntp4900
Rp4901
(dp4902
g7
(lp4903
L27440482L
aL1648217755L
aL736864190L
aL713334463L
aL3191766362L
aL27440481L
aL3191766365L
aL736864191L
aL713334464L
aL736864193L
aL3191763969L
aL27440480L
aL3191763967L
aL2396299124L
aL2396293695L
aL2422420957L
aL2396293696L
aL2396300353L
aL3191763963L
aL27440479L
aL3191762973L
aL3191762971L
aL27440478L
aL3191762967L
aL713312029L
asg9
(lp4904
I15
aI15
asg11
L106783557L
sg12
(lp4905
Vname
p4906
aVNorth Michigan Avenue
p4907
aVoneway
p4908
aVyes
p4909
aVhighway
p4910
aVprimary
p4911
asbag1
(g2
g3
Ntp4912
Rp4913
(dp4914
g7
(lp4915
L27440482L
aL1648217755L
aL736864190L
aL713334463L
aL3191766362L
aL27440481L
aL3191766365L
aL736864191L
aL713334464L
aL736864193L
aL3191763969L
aL27440480L
aL3191763967L
aL2396299124L
aL2396293695L
aL2422420957L
aL2396293696L
aL2396300353L
aL3191763963L
aL27440479L
aL3191762973L
aL3191762971L
aL27440478L
aL3191762967L
aL713312029L
asg9
(lp4916
I15
aI15
asg11
L106783557L
sg12
(lp4917
Vname
p4918
aVNorth Michigan Avenue
p4919
aVoneway
p4920
aVyes
p4921
aVhighway
p4922
aVprimary
p4923
asbag1
(g2
g3
Ntp4924
Rp4925
(dp4926
g7
(lp4927
L27721221L
aL2398529871L
aL2395425329L
aL369890733L
aL369890812L
aL736917894L
aL27721224L
aL2395425330L
aL736862003L
aL931260010L
aL736860897L
aL3884752869L
asg9
(lp4928
I10
aI10
asg11
L4519037L
sg12
(lp4929
Vname
p4930
aVNorth Michigan Avenue
p4931
aVlayer
p4932
aV1
p4933
aVoneway
p4934
aVyes
p4935
aVhighway
p4936
aVprimary
p4937
aVloc_ref
p4938
aV100 E
p4939
asbag1
(g2
g3
Ntp4940
Rp4941
(dp4942
g7
(lp4943
L27440482L
aL1648217755L
aL736864190L
aL713334463L
aL3191766362L
aL27440481L
aL3191766365L
aL736864191L
aL713334464L
aL736864193L
aL3191763969L
aL27440480L
aL3191763967L
aL2396299124L
aL2396293695L
aL2422420957L
aL2396293696L
aL2396300353L
aL3191763963L
aL27440479L
aL3191762973L
aL3191762971L
aL27440478L
aL3191762967L
aL713312029L
asg9
(lp4944
I15
aI15
asg11
L106783557L
sg12
(lp4945
Vname
p4946
aVNorth Michigan Avenue
p4947
aVoneway
p4948
aVyes
p4949
aVhighway
p4950
aVprimary
p4951
asbag1
(g2
g3
Ntp4952
Rp4953
(dp4954
g7
(lp4955
L258957360L
aL2393971333L
aL2423721320L
aL2423717292L
aL27446500L
asg9
(lp4956
I8
aI8
asg11
L230975353L
sg12
(lp4957
Vname
p4958
aVNorth Michigan Avenue
p4959
aVlayer
p4960
aV1
p4961
aVoneway
p4962
aVyes
p4963
aVhighway
p4964
aVprimary
p4965
aVloc_ref
p4966
aV100 E
p4967
asbag1
(g2
g3
Ntp4968
Rp4969
(dp4970
g7
(lp4971
L258021042L
aL2476167244L
aL27721221L
asg9
(lp4972
I10
aI10
asg11
L23810087L
sg12
(lp4973
Vname
p4974
aVNorth Michigan Avenue
p4975
aVlayer
p4976
aV2
p4977
aVbridge
p4978
aVyes
p4979
aVoneway
p4980
aVyes
p4981
aVhighway
p4982
aVprimary
p4983
aVloc_ref
p4984
aV100 E
p4985
asbag1
(g2
g3
Ntp4986
Rp4987
(dp4988
g7
(lp4989
L250278912L
aL262077310L
aL2642873515L
aL286900245L
aL286900249L
aL2328702573L
aL4069458195L
aL286900268L
aL2328702613L
aL2328702688L
aL1257584223L
aL286900184L
aL1844566211L
aL286900185L
aL1844566113L
aL286900186L
aL286900187L
aL1844566159L
aL2206162371L
aL2174877698L
aL286900188L
aL339269476L
aL1610885999L
aL339269514L
aL2174877452L
aL424329169L
aL2206168484L
aL102825447L
asg9
(lp4990
I25
aI26
asg11
L57355727L
sg12
(lp4991
Vname
p4992
aVNorth Sheridan Road
p4993
aVlanes
p4994
aV2
p4995
aVoneway
p4996
aVno
p4997
aVhighway
p4998
aVprimary
p4999
asbag1
(g2
g3
Ntp5000
Rp5001
(dp5002
g7
(lp5003
L257146995L
aL257121401L
aL2394561325L
aL257170011L
aL3660938551L
aL2394540344L
aL2783790293L
aL257170271L
aL2783790294L
aL4072793308L
aL1531380379L
asg9
(lp5004
I23
aI23
asg11
L317622791L
sg12
(lp5005
Vname
p5006
aVNorth Sheridan Road
p5007
aVoneway
p5008
aVno
p5009
aVhighway
p5010
aVsecondary
p5011
aVtiger:cfcc
p5012
aVA41
p5013
aVtiger:county
p5014
aVCook, IL
p5015
aVtiger:reviewed
p5016
aVno
p5017
aVtiger:zip_left
p5018
aV60626
p5019
aVtiger:name_base
p5020
aVSheridan
p5021
aVtiger:name_type
p5022
aVRd
p5023
aVtiger:zip_right
p5024
aV60626
p5025
aVtiger:name_direction_prefix
p5026
aVN
p5027
asbag1
(g2
g3
Ntp5028
Rp5029
(dp5030
g7
(lp5031
L257146995L
aL257121401L
aL2394561325L
aL257170011L
aL3660938551L
aL2394540344L
aL2783790293L
aL257170271L
aL2783790294L
aL4072793308L
aL1531380379L
asg9
(lp5032
I23
aI23
asg11
L317622791L
sg12
(lp5033
Vname
p5034
aVNorth Sheridan Road
p5035
aVoneway
p5036
aVno
p5037
aVhighway
p5038
aVsecondary
p5039
aVtiger:cfcc
p5040
aVA41
p5041
aVtiger:county
p5042
aVCook, IL
p5043
aVtiger:reviewed
p5044
aVno
p5045
aVtiger:zip_left
p5046
aV60626
p5047
aVtiger:name_base
p5048
aVSheridan
p5049
aVtiger:name_type
p5050
aVRd
p5051
aVtiger:zip_right
p5052
aV60626
p5053
aVtiger:name_direction_prefix
p5054
aVN
p5055
asbag1
(g2
g3
Ntp5056
Rp5057
(dp5058
g7
(lp5059
L709412789L
aL2787305624L
aL1884311493L
aL709412743L
aL709412759L
aL388608183L
asg9
(lp5060
I2
aI2
asg11
L236157125L
sg12
(lp5061
Vname
p5062
aVEast Congress Parkway
p5063
aVoneway
p5064
aVyes
p5065
aVhighway
p5066
aVprimary
p5067
aVloc_ref
p5068
aV500 S
p5069
aVsidewalk
p5070
aVright
p5071
asbag1
(g2
g3
Ntp5072
Rp5073
(dp5074
g7
(lp5075
L2787305648L
aL740237255L
aL27440242L
asg9
(lp5076
I1
aI1
asg11
L313874095L
sg12
(lp5077
Vname
p5078
aVEast Congress Plaza Drive
p5079
aVhighway
p5080
aVtertiary
p5081
aVloc_ref
p5082
aV100 E
p5083
aVsidewalk
p5084
aVboth
p5085
asbag1
(g2
g3
Ntp5086
Rp5087
(dp5088
g7
(lp5089
L269446292L
aL740363360L
aL740363361L
aL740363362L
aL2819167158L
aL269446285L
asg9
(lp5090
I9
aI9
asg11
L48785123L
sg12
(lp5091
Vname
p5092
aVNorth Michigan Avenue
p5093
aVlayer
p5094
aV1
p5095
aVoneway
p5096
aVyes
p5097
aVhighway
p5098
aVprimary
p5099
aVloc_ref
p5100
aV100 E
p5101
asbag1
(g2
g3
Ntp5102
Rp5103
(dp5104
g7
(lp5105
L740260420L
aL2867411653L
aL740260421L
aL272350581L
asg9
(lp5106
I7
aI7
asg11
L231383138L
sg12
(lp5107
Vname
p5108
aVNorth Michigan Avenue
p5109
aVoneway
p5110
aVyes
p5111
aVbicycle
p5112
aVdesignated
p5113
aVhighway
p5114
aVprimary
p5115
aVloc_ref
p5116
aV100 E
p5117
aVsidewalk
p5118
aVright
p5119
asbag1
(g2
g3
Ntp5120
Rp5121
(dp5122
g7
(lp5123
L272208894L
aL2787305569L
aL1947573146L
aL740237252L
aL27440244L
aL740237253L
aL258024595L
aL2871599692L
aL740237254L
aL258024597L
aL2787305648L
asg9
(lp5124
I0
aI0
asg11
L313874094L
sg12
(lp5125
Vname
p5126
aVEast Congress Plaza Drive
p5127
aVhighway
p5128
aVtertiary
p5129
aVloc_ref
p5130
aV100 E
p5131
aVsidewalk
p5132
aVboth
p5133
asbag1
(g2
g3
Ntp5134
Rp5135
(dp5136
g7
(lp5137
L713312029L
aL2981612601L
aL2981612604L
aL3191762966L
aL713311573L
asg9
(lp5138
I17
aI17
asg11
L294565006L
sg12
(lp5139
Vname
p5140
aVNorth Michigan Avenue
p5141
aVoneway
p5142
aVyes
p5143
aVhighway
p5144
aVprimary
p5145
asbag1
(g2
g3
Ntp5146
Rp5147
(dp5148
g7
(lp5149
L713312029L
aL2981612601L
aL2981612604L
aL3191762966L
aL713311573L
asg9
(lp5150
I17
aI17
asg11
L294565006L
sg12
(lp5151
Vname
p5152
aVNorth Michigan Avenue
p5153
aVoneway
p5154
aVyes
p5155
aVhighway
p5156
aVprimary
p5157
asbag1
(g2
g3
Ntp5158
Rp5159
(dp5160
g7
(lp5161
L713312029L
aL2981612601L
aL2981612604L
aL3191762966L
aL713311573L
asg9
(lp5162
I17
aI17
asg11
L294565006L
sg12
(lp5163
Vname
p5164
aVNorth Michigan Avenue
p5165
aVoneway
p5166
aVyes
p5167
aVhighway
p5168
aVprimary
p5169
asbag1
(g2
g3
Ntp5170
Rp5171
(dp5172
g7
(lp5173
L27440482L
aL1648217755L
aL736864190L
aL713334463L
aL3191766362L
aL27440481L
aL3191766365L
aL736864191L
aL713334464L
aL736864193L
aL3191763969L
aL27440480L
aL3191763967L
aL2396299124L
aL2396293695L
aL2422420957L
aL2396293696L
aL2396300353L
aL3191763963L
aL27440479L
aL3191762973L
aL3191762971L
aL27440478L
aL3191762967L
aL713312029L
asg9
(lp5174
I17
aI17
asg11
L106783557L
sg12
(lp5175
Vname
p5176
aVNorth Michigan Avenue
p5177
aVoneway
p5178
aVyes
p5179
aVhighway
p5180
aVprimary
p5181
asbag1
(g2
g3
Ntp5182
Rp5183
(dp5184
g7
(lp5185
L27440482L
aL1648217755L
aL736864190L
aL713334463L
aL3191766362L
aL27440481L
aL3191766365L
aL736864191L
aL713334464L
aL736864193L
aL3191763969L
aL27440480L
aL3191763967L
aL2396299124L
aL2396293695L
aL2422420957L
aL2396293696L
aL2396300353L
aL3191763963L
aL27440479L
aL3191762973L
aL3191762971L
aL27440478L
aL3191762967L
aL713312029L
asg9
(lp5186
I15
aI15
asg11
L106783557L
sg12
(lp5187
Vname
p5188
aVNorth Michigan Avenue
p5189
aVoneway
p5190
aVyes
p5191
aVhighway
p5192
aVprimary
p5193
asbag1
(g2
g3
Ntp5194
Rp5195
(dp5196
g7
(lp5197
L269446279L
aL3191763964L
aL3322926164L
aL3191763961L
aL269446278L
aL3191762972L
aL3191762970L
aL269446277L
aL3191762968L
aL3191762965L
aL269446276L
aL269446293L
asg9
(lp5198
I16
aI17
asg11
L316912739L
sg12
(lp5199
Vname
p5200
aVNorth Michigan Avenue
p5201
aVoneway
p5202
aV-1
p5203
aVhighway
p5204
aVprimary
p5205
asbag1
(g2
g3
Ntp5206
Rp5207
(dp5208
g7
(lp5209
L27440482L
aL1648217755L
aL736864190L
aL713334463L
aL3191766362L
aL27440481L
aL3191766365L
aL736864191L
aL713334464L
aL736864193L
aL3191763969L
aL27440480L
aL3191763967L
aL2396299124L
aL2396293695L
aL2422420957L
aL2396293696L
aL2396300353L
aL3191763963L
aL27440479L
aL3191762973L
aL3191762971L
aL27440478L
aL3191762967L
aL713312029L
asg9
(lp5210
I15
aI15
asg11
L106783557L
sg12
(lp5211
Vname
p5212
aVNorth Michigan Avenue
p5213
aVoneway
p5214
aVyes
p5215
aVhighway
p5216
aVprimary
p5217
asbag1
(g2
g3
Ntp5218
Rp5219
(dp5220
g7
(lp5221
L269446279L
aL3191763966L
aL713334251L
aL736864162L
aL3191766364L
aL269446281L
aL3191766361L
aL713334252L
aL736864163L
aL736864164L
aL2812430206L
aL269446280L
asg9
(lp5222
I14
aI14
asg11
L57377327L
sg12
(lp5223
Vname
p5224
aVNorth Michigan Avenue
p5225
aVoneway
p5226
aVyes
p5227
aVhighway
p5228
aVprimary
p5229
asbag1
(g2
g3
Ntp5230
Rp5231
(dp5232
g7
(lp5233
L27440482L
aL1648217755L
aL736864190L
aL713334463L
aL3191766362L
aL27440481L
aL3191766365L
aL736864191L
aL713334464L
aL736864193L
aL3191763969L
aL27440480L
aL3191763967L
aL2396299124L
aL2396293695L
aL2422420957L
aL2396293696L
aL2396300353L
aL3191763963L
aL27440479L
aL3191762973L
aL3191762971L
aL27440478L
aL3191762967L
aL713312029L
asg9
(lp5234
I15
aI15
asg11
L106783557L
sg12
(lp5235
Vname
p5236
aVNorth Michigan Avenue
p5237
aVoneway
p5238
aVyes
p5239
aVhighway
p5240
aVprimary
p5241
asbag1
(g2
g3
Ntp5242
Rp5243
(dp5244
g7
(lp5245
L27440482L
aL1648217755L
aL736864190L
aL713334463L
aL3191766362L
aL27440481L
aL3191766365L
aL736864191L
aL713334464L
aL736864193L
aL3191763969L
aL27440480L
aL3191763967L
aL2396299124L
aL2396293695L
aL2422420957L
aL2396293696L
aL2396300353L
aL3191763963L
aL27440479L
aL3191762973L
aL3191762971L
aL27440478L
aL3191762967L
aL713312029L
asg9
(lp5246
I14
aI14
asg11
L106783557L
sg12
(lp5247
Vname
p5248
aVNorth Michigan Avenue
p5249
aVoneway
p5250
aVyes
p5251
aVhighway
p5252
aVprimary
p5253
asbag1
(g2
g3
Ntp5254
Rp5255
(dp5256
g7
(lp5257
L27440482L
aL1648217755L
aL736864190L
aL713334463L
aL3191766362L
aL27440481L
aL3191766365L
aL736864191L
aL713334464L
aL736864193L
aL3191763969L
aL27440480L
aL3191763967L
aL2396299124L
aL2396293695L
aL2422420957L
aL2396293696L
aL2396300353L
aL3191763963L
aL27440479L
aL3191762973L
aL3191762971L
aL27440478L
aL3191762967L
aL713312029L
asg9
(lp5258
I14
aI14
asg11
L106783557L
sg12
(lp5259
Vname
p5260
aVNorth Michigan Avenue
p5261
aVoneway
p5262
aVyes
p5263
aVhighway
p5264
aVprimary
p5265
asbag1
(g2
g3
Ntp5266
Rp5267
(dp5268
g7
(lp5269
L269446279L
aL3191763966L
aL713334251L
aL736864162L
aL3191766364L
aL269446281L
aL3191766361L
aL713334252L
aL736864163L
aL736864164L
aL2812430206L
aL269446280L
asg9
(lp5270
I15
aI15
asg11
L57377327L
sg12
(lp5271
Vname
p5272
aVNorth Michigan Avenue
p5273
aVoneway
p5274
aVyes
p5275
aVhighway
p5276
aVprimary
p5277
asbag1
(g2
g3
Ntp5278
Rp5279
(dp5280
g7
(lp5281
L27440482L
aL1648217755L
aL736864190L
aL713334463L
aL3191766362L
aL27440481L
aL3191766365L
aL736864191L
aL713334464L
aL736864193L
aL3191763969L
aL27440480L
aL3191763967L
aL2396299124L
aL2396293695L
aL2422420957L
aL2396293696L
aL2396300353L
aL3191763963L
aL27440479L
aL3191762973L
aL3191762971L
aL27440478L
aL3191762967L
aL713312029L
asg9
(lp5282
I14
aI14
asg11
L106783557L
sg12
(lp5283
Vname
p5284
aVNorth Michigan Avenue
p5285
aVoneway
p5286
aVyes
p5287
aVhighway
p5288
aVprimary
p5289
asbag1
(g2
g3
Ntp5290
Rp5291
(dp5292
g7
(lp5293
L258965972L
aL3191766673L
aL3918786383L
aL3191766669L
aL272213455L
aL3191766667L
aL3191766379L
aL261161069L
aL3191766375L
aL3191766373L
aL27440483L
aL3191766369L
aL713334461L
aL713334462L
aL736864188L
aL3191766367L
aL27440482L
asg9
(lp5294
I14
aI14
asg11
L255369389L
sg12
(lp5295
Vname
p5296
aVNorth Michigan Avenue
p5297
aVoneway
p5298
aVyes
p5299
aVhighway
p5300
aVprimary
p5301
asbag1
(g2
g3
Ntp5302
Rp5303
(dp5304
g7
(lp5305
L258965972L
aL3191766673L
aL3918786383L
aL3191766669L
aL272213455L
aL3191766667L
aL3191766379L
aL261161069L
aL3191766375L
aL3191766373L
aL27440483L
aL3191766369L
aL713334461L
aL713334462L
aL736864188L
aL3191766367L
aL27440482L
asg9
(lp5306
I14
aI14
asg11
L255369389L
sg12
(lp5307
Vname
p5308
aVNorth Michigan Avenue
p5309
aVoneway
p5310
aVyes
p5311
aVhighway
p5312
aVprimary
p5313
asbag1
(g2
g3
Ntp5314
Rp5315
(dp5316
g7
(lp5317
L258965972L
aL3191766673L
aL3918786383L
aL3191766669L
aL272213455L
aL3191766667L
aL3191766379L
aL261161069L
aL3191766375L
aL3191766373L
aL27440483L
aL3191766369L
aL713334461L
aL713334462L
aL736864188L
aL3191766367L
aL27440482L
asg9
(lp5318
I14
aI14
asg11
L255369389L
sg12
(lp5319
Vname
p5320
aVNorth Michigan Avenue
p5321
aVoneway
p5322
aVyes
p5323
aVhighway
p5324
aVprimary
p5325
asbag1
(g2
g3
Ntp5326
Rp5327
(dp5328
g7
(lp5329
L258965972L
aL3191766673L
aL3918786383L
aL3191766669L
aL272213455L
aL3191766667L
aL3191766379L
aL261161069L
aL3191766375L
aL3191766373L
aL27440483L
aL3191766369L
aL713334461L
aL713334462L
aL736864188L
aL3191766367L
aL27440482L
asg9
(lp5330
I14
aI14
asg11
L255369389L
sg12
(lp5331
Vname
p5332
aVNorth Michigan Avenue
p5333
aVoneway
p5334
aVyes
p5335
aVhighway
p5336
aVprimary
p5337
asbag1
(g2
g3
Ntp5338
Rp5339
(dp5340
g7
(lp5341
L258965972L
aL3191766673L
aL3918786383L
aL3191766669L
aL272213455L
aL3191766667L
aL3191766379L
aL261161069L
aL3191766375L
aL3191766373L
aL27440483L
aL3191766369L
aL713334461L
aL713334462L
aL736864188L
aL3191766367L
aL27440482L
asg9
(lp5342
I13
aI14
asg11
L255369389L
sg12
(lp5343
Vname
p5344
aVNorth Michigan Avenue
p5345
aVoneway
p5346
aVyes
p5347
aVhighway
p5348
aVprimary
p5349
asbag1
(g2
g3
Ntp5350
Rp5351
(dp5352
g7
(lp5353
L258965972L
aL3191766673L
aL3918786383L
aL3191766669L
aL272213455L
aL3191766667L
aL3191766379L
aL261161069L
aL3191766375L
aL3191766373L
aL27440483L
aL3191766369L
aL713334461L
aL713334462L
aL736864188L
aL3191766367L
aL27440482L
asg9
(lp5354
I13
aI13
asg11
L255369389L
sg12
(lp5355
Vname
p5356
aVNorth Michigan Avenue
p5357
aVoneway
p5358
aVyes
p5359
aVhighway
p5360
aVprimary
p5361
asbag1
(g2
g3
Ntp5362
Rp5363
(dp5364
g7
(lp5365
L258965972L
aL3191766673L
aL3918786383L
aL3191766669L
aL272213455L
aL3191766667L
aL3191766379L
aL261161069L
aL3191766375L
aL3191766373L
aL27440483L
aL3191766369L
aL713334461L
aL713334462L
aL736864188L
aL3191766367L
aL27440482L
asg9
(lp5366
I13
aI13
asg11
L255369389L
sg12
(lp5367
Vname
p5368
aVNorth Michigan Avenue
p5369
aVoneway
p5370
aVyes
p5371
aVhighway
p5372
aVprimary
p5373
asbag1
(g2
g3
Ntp5374
Rp5375
(dp5376
g7
(lp5377
L27721250L
aL3191766678L
aL3918784922L
aL3191766675L
aL258965972L
asg9
(lp5378
I12
aI13
asg11
L48842832L
sg12
(lp5379
Vname
p5380
aVNorth Michigan Avenue
p5381
aVoneway
p5382
aVyes
p5383
aVhighway
p5384
aVprimary
p5385
asbag1
(g2
g3
Ntp5386
Rp5387
(dp5388
g7
(lp5389
L27721250L
aL3191766678L
aL3918784922L
aL3191766675L
aL258965972L
asg9
(lp5390
I12
aI12
asg11
L48842832L
sg12
(lp5391
Vname
p5392
aVNorth Michigan Avenue
p5393
aVoneway
p5394
aVyes
p5395
aVhighway
p5396
aVprimary
p5397
asbag1
(g2
g3
Ntp5398
Rp5399
(dp5400
g7
(lp5401
L28290277L
aL3211798021L
aL2391030903L
aL2391027633L
aL740260072L
aL2391027639L
aL3211798020L
aL4156112934L
aL28289299L
asg9
(lp5402
I6
aI6
asg11
L315089479L
sg12
(lp5403
Vname
p5404
aVNorth Dearborn Street
p5405
aVbench
p5406
aVyes
p5407
aVoneway
p5408
aV-1
p5409
aVhighway
p5410
aVsecondary
p5411
aVloc_ref
p5412
aV50 W
p5413
aVshelter
p5414
aVno
p5415
aVoperator
p5416
aVChicago Transit Authority
p5417
asbag1
(g2
g3
Ntp5418
Rp5419
(dp5420
g7
(lp5421
L28290277L
aL3211798021L
aL2391030903L
aL2391027633L
aL740260072L
aL2391027639L
aL3211798020L
aL4156112934L
aL28289299L
asg9
(lp5422
I6
aI6
asg11
L315089479L
sg12
(lp5423
Vname
p5424
aVNorth Dearborn Street
p5425
aVbench
p5426
aVyes
p5427
aVoneway
p5428
aV-1
p5429
aVhighway
p5430
aVsecondary
p5431
aVloc_ref
p5432
aV50 W
p5433
aVshelter
p5434
aVno
p5435
aVoperator
p5436
aVChicago Transit Authority
p5437
asbag1
(g2
g3
Ntp5438
Rp5439
(dp5440
g7
(lp5441
L261117414L
aL2226564929L
aL261226270L
aL261198152L
aL261242504L
aL261325492L
aL261294461L
aL261325491L
aL1257572572L
aL2206053604L
aL261325501L
aL2226676801L
aL3242152385L
aL102825447L
asg9
(lp5442
I32
aI32
asg11
L313291438L
sg12
(lp5443
Vname
p5444
aVNorth Sheridan Road
p5445
aVlanes
p5446
aV2
p5447
aVoneway
p5448
aVno
p5449
aVhighway
p5450
aVprimary
p5451
asbag1
(g2
g3
Ntp5452
Rp5453
(dp5454
g7
(lp5455
L3884752869L
aL931259982L
aL931259976L
aL271175339L
aL619647952L
aL3257711547L
aL3257711546L
aL27721250L
asg9
(lp5456
I12
aI12
asg11
L79785857L
sg12
(lp5457
Vname
p5458
aVNorth Michigan Avenue
p5459
aVlayer
p5460
aV1
p5461
aVoneway
p5462
aVyes
p5463
aVhighway
p5464
aVprimary
p5465
aVloc_ref
p5466
aV100 E
p5467
asbag1
(g2
g3
Ntp5468
Rp5469
(dp5470
g7
(lp5471
L3884752869L
aL931259982L
aL931259976L
aL271175339L
aL619647952L
aL3257711547L
aL3257711546L
aL27721250L
asg9
(lp5472
I12
aI12
asg11
L79785857L
sg12
(lp5473
Vname
p5474
aVNorth Michigan Avenue
p5475
aVlayer
p5476
aV1
p5477
aVoneway
p5478
aVyes
p5479
aVhighway
p5480
aVprimary
p5481
aVloc_ref
p5482
aV100 E
p5483
asbag1
(g2
g3
Ntp5484
Rp5485
(dp5486
g7
(lp5487
L257146995L
aL257121401L
aL2394561325L
aL257170011L
aL3660938551L
aL2394540344L
aL2783790293L
aL257170271L
aL2783790294L
aL4072793308L
aL1531380379L
asg9
(lp5488
I22
aI22
asg11
L317622791L
sg12
(lp5489
Vname
p5490
aVNorth Sheridan Road
p5491
aVoneway
p5492
aVno
p5493
aVhighway
p5494
aVsecondary
p5495
aVtiger:cfcc
p5496
aVA41
p5497
aVtiger:county
p5498
aVCook, IL
p5499
aVtiger:reviewed
p5500
aVno
p5501
aVtiger:zip_left
p5502
aV60626
p5503
aVtiger:name_base
p5504
aVSheridan
p5505
aVtiger:name_type
p5506
aVRd
p5507
aVtiger:zip_right
p5508
aV60626
p5509
aVtiger:name_direction_prefix
p5510
aVN
p5511
asbag1
(g2
g3
Ntp5512
Rp5513
(dp5514
g7
(lp5515
L3884752869L
aL931259982L
aL931259976L
aL271175339L
aL619647952L
aL3257711547L
aL3257711546L
aL27721250L
asg9
(lp5516
I11
aI11
asg11
L79785857L
sg12
(lp5517
Vname
p5518
aVNorth Michigan Avenue
p5519
aVlayer
p5520
aV1
p5521
aVoneway
p5522
aVyes
p5523
aVhighway
p5524
aVprimary
p5525
aVloc_ref
p5526
aV100 E
p5527
asbag1
(g2
g3
Ntp5528
Rp5529
(dp5530
g7
(lp5531
L258965972L
aL3191766673L
aL3918786383L
aL3191766669L
aL272213455L
aL3191766667L
aL3191766379L
aL261161069L
aL3191766375L
aL3191766373L
aL27440483L
aL3191766369L
aL713334461L
aL713334462L
aL736864188L
aL3191766367L
aL27440482L
asg9
(lp5532
I13
aI13
asg11
L255369389L
sg12
(lp5533
Vname
p5534
aVNorth Michigan Avenue
p5535
aVoneway
p5536
aVyes
p5537
aVhighway
p5538
aVprimary
p5539
asbag1
(g2
g3
Ntp5540
Rp5541
(dp5542
g7
(lp5543
L1491768416L
aL4072793303L
aL2214404156L
aL4065598140L
aL250278912L
asg9
(lp5544
I25
aI25
asg11
L404291523L
sg12
(lp5545
Vname
p5546
aVNorth Sheridan Road
p5547
aVoneway
p5548
aVno
p5549
aVhighway
p5550
aVsecondary
p5551
aVtiger:cfcc
p5552
aVA41
p5553
aVtiger:county
p5554
aVCook, IL
p5555
aVtiger:reviewed
p5556
aVno
p5557
aVtiger:zip_left
p5558
aV60626
p5559
aVtiger:name_base
p5560
aVSheridan
p5561
aVtiger:name_type
p5562
aVRd
p5563
aVtiger:zip_right
p5564
aV60626
p5565
aVtiger:name_direction_prefix
p5566
aVN
p5567
asbag1
(g2
g3
Ntp5568
Rp5569
(dp5570
g7
(lp5571
L257109633L
aL257109691L
aL257109692L
aL257109693L
aL2256944378L
aL4065790499L
aL257108196L
asg9
(lp5572
I17
aI17
asg11
L23740750L
sg12
(lp5573
Vhgv
p5574
aVno
p5575
aVref
p5576
aVUS 41
p5577
aVlanes
p5578
aV1
p5579
aVoneway
p5580
aVyes
p5581
aVhighway
p5582
aVtrunk_link
p5583
asbag1
(g2
g3
Ntp5584
Rp5585
(dp5586
g7
(lp5587
L257108196L
aL2256944414L
aL158733117L
aL4065790502L
aL1980577617L
aL2174877770L
aL4065973073L
aL158733116L
asg9
(lp5588
I17
aI17
asg11
L51878127L
sg12
(lp5589
Vref
p5590
aVUS 41
p5591
aVname
p5592
aVWest Foster Avenue
p5593
aVlanes
p5594
aV4
p5595
aVhighway
p5596
aVsecondary
p5597
asbag1
(g2
g3
Ntp5598
Rp5599
(dp5600
g7
(lp5601
L2395940339L
aL4065973895L
aL2213402523L
aL2394540265L
aL4065973062L
aL257097046L
asg9
(lp5602
I17
aI17
asg11
L121165691L
sg12
(lp5603
Vref
p5604
aVUS 41
p5605
aVname
p5606
aVWest Foster Avenue
p5607
aVlanes
p5608
aV3
p5609
aVhighway
p5610
aVsecondary
p5611
asbag1
(g2
g3
Ntp5612
Rp5613
(dp5614
g7
(lp5615
L257108196L
aL2256944414L
aL158733117L
aL4065790502L
aL1980577617L
aL2174877770L
aL4065973073L
aL158733116L
asg9
(lp5616
I17
aI17
asg11
L51878127L
sg12
(lp5617
Vref
p5618
aVUS 41
p5619
aVname
p5620
aVWest Foster Avenue
p5621
aVlanes
p5622
aV4
p5623
aVhighway
p5624
aVsecondary
p5625
asbag1
(g2
g3
Ntp5626
Rp5627
(dp5628
g7
(lp5629
L2395940339L
aL4065973895L
aL2213402523L
aL2394540265L
aL4065973062L
aL257097046L
asg9
(lp5630
I18
aI18
asg11
L121165691L
sg12
(lp5631
Vref
p5632
aVUS 41
p5633
aVname
p5634
aVWest Foster Avenue
p5635
aVlanes
p5636
aV3
p5637
aVhighway
p5638
aVsecondary
p5639
asbag1
(g2
g3
Ntp5640
Rp5641
(dp5642
g7
(lp5643
L250278912L
aL262077310L
aL2642873515L
aL286900245L
aL286900249L
aL2328702573L
aL4069458195L
aL286900268L
aL2328702613L
aL2328702688L
aL1257584223L
aL286900184L
aL1844566211L
aL286900185L
aL1844566113L
aL286900186L
aL286900187L
aL1844566159L
aL2206162371L
aL2174877698L
aL286900188L
aL339269476L
aL1610885999L
aL339269514L
aL2174877452L
aL424329169L
aL2206168484L
aL102825447L
asg9
(lp5644
I28
aI28
asg11
L57355727L
sg12
(lp5645
Vname
p5646
aVNorth Sheridan Road
p5647
aVlanes
p5648
aV2
p5649
aVoneway
p5650
aVno
p5651
aVhighway
p5652
aVprimary
p5653
asbag1
(g2
g3
Ntp5654
Rp5655
(dp5656
g7
(lp5657
L257146995L
aL257121401L
aL2394561325L
aL257170011L
aL3660938551L
aL2394540344L
aL2783790293L
aL257170271L
aL2783790294L
aL4072793308L
aL1531380379L
asg9
(lp5658
I23
aI24
asg11
L317622791L
sg12
(lp5659
Vname
p5660
aVNorth Sheridan Road
p5661
aVoneway
p5662
aVno
p5663
aVhighway
p5664
aVsecondary
p5665
aVtiger:cfcc
p5666
aVA41
p5667
aVtiger:county
p5668
aVCook, IL
p5669
aVtiger:reviewed
p5670
aVno
p5671
aVtiger:zip_left
p5672
aV60626
p5673
aVtiger:name_base
p5674
aVSheridan
p5675
aVtiger:name_type
p5676
aVRd
p5677
aVtiger:zip_right
p5678
aV60626
p5679
aVtiger:name_direction_prefix
p5680
aVN
p5681
asbag1
(g2
g3
Ntp5682
Rp5683
(dp5684
g7
(lp5685
L739097268L
aL739097559L
aL739101922L
aL739101923L
aL26098153L
aL739101924L
aL739101925L
aL250755885L
aL26098155L
aL26098157L
aL4075955311L
aL271146941L
aL4075955310L
aL26098158L
aL26098159L
asg9
(lp5686
I17
aI17
asg11
L317622794L
sg12
(lp5687
VNHS
p5688
aVyes
p5689
aVhgv
p5690
aVno
p5691
aVref
p5692
aVUS 41
p5693
aVname
p5694
aVNorth Lake Shore Drive
p5695
aVlanes
p5696
aV4
p5697
aVoneway
p5698
aVyes
p5699
aVhighway
p5700
aVtrunk
p5701
asbag1
(g2
g3
Ntp5702
Rp5703
(dp5704
g7
(lp5705
L739097268L
aL739097559L
aL739101922L
aL739101923L
aL26098153L
aL739101924L
aL739101925L
aL250755885L
aL26098155L
aL26098157L
aL4075955311L
aL271146941L
aL4075955310L
aL26098158L
aL26098159L
asg9
(lp5706
I17
aI17
asg11
L317622794L
sg12
(lp5707
VNHS
p5708
aVyes
p5709
aVhgv
p5710
aVno
p5711
aVref
p5712
aVUS 41
p5713
aVname
p5714
aVNorth Lake Shore Drive
p5715
aVlanes
p5716
aV4
p5717
aVoneway
p5718
aVyes
p5719
aVhighway
p5720
aVtrunk
p5721
asbag1
(g2
g3
Ntp5722
Rp5723
(dp5724
g7
(lp5725
L258958980L
aL4156112537L
aL740271864L
aL2391131208L
aL740271865L
aL740271866L
aL258957360L
asg9
(lp5726
I7
aI7
asg11
L145846237L
sg12
(lp5727
Vname
p5728
aVNorth Michigan Avenue
p5729
aVoneway
p5730
aVyes
p5731
aVhighway
p5732
aVprimary
p5733
aVloc_ref
p5734
aV100 E
p5735
asbag1
(g2
g3
Ntp5736
Rp5737
(dp5738
g7
(lp5739
L28290256L
aL4156112895L
aL740260178L
aL2391120252L
aL4156112907L
aL27446756L
asg9
(lp5740
I6
aI6
asg11
L151989531L
sg12
(lp5741
Vname
p5742
aVEast Washington Street
p5743
aVbusway
p5744
aVlane
p5745
aVoneway
p5746
aVyes
p5747
aVbicycle
p5748
aVdesignated
p5749
aVhighway
p5750
aVprimary
p5751
aVloc_ref
p5752
aV100 N
p5753
aVcycleway
p5754
aVtrack
p5755
aVsidewalk
p5756
aVboth
p5757
asbag1
(g2
g3
Ntp5758
Rp5759
(dp5760
g7
(lp5761
L28290277L
aL4156112899L
aL28290256L
asg9
(lp5762
I6
aI6
asg11
L315089480L
sg12
(lp5763
Vname
p5764
aVWest Washington Street
p5765
aVbusway
p5766
aVlane
p5767
aVoneway
p5768
aVyes
p5769
aVbicycle
p5770
aVdesignated
p5771
aVhighway
p5772
aVprimary
p5773
aVloc_ref
p5774
aV100 N
p5775
aVcycleway
p5776
aVtrack
p5777
asbag1
(g2
g3
Ntp5778
Rp5779
(dp5780
g7
(lp5781
L27446756L
aL4156112903L
aL262173260L
aL4156112914L
aL27446496L
asg9
(lp5782
I7
aI7
asg11
L385889739L
sg12
(lp5783
Vname
p5784
aVEast Washington Street
p5785
aVoneway
p5786
aVyes
p5787
aVbicycle
p5788
aVdesignated
p5789
aVhighway
p5790
aVprimary
p5791
aVloc_ref
p5792
aV100 N
p5793
aVcycleway
p5794
aVtrack
p5795
aVsidewalk
p5796
aVboth
p5797
asbag1
(g2
g3
Ntp5798
Rp5799
(dp5800
g7
(lp5801
L28290256L
aL4156112895L
aL740260178L
aL2391120252L
aL4156112907L
aL27446756L
asg9
(lp5802
I7
aI7
asg11
L151989531L
sg12
(lp5803
Vname
p5804
aVEast Washington Street
p5805
aVbusway
p5806
aVlane
p5807
aVoneway
p5808
aVyes
p5809
aVbicycle
p5810
aVdesignated
p5811
aVhighway
p5812
aVprimary
p5813
aVloc_ref
p5814
aV100 N
p5815
aVcycleway
p5816
aVtrack
p5817
aVsidewalk
p5818
aVboth
p5819
asbag1
(g2
g3
Ntp5820
Rp5821
(dp5822
g7
(lp5823
L27446495L
aL4156112909L
aL740260310L
aL740260419L
aL740260420L
asg9
(lp5824
I7
aI7
asg11
L145846240L
sg12
(lp5825
Vname
p5826
aVNorth Michigan Avenue
p5827
aVoneway
p5828
aVyes
p5829
aVbicycle
p5830
aVdesignated
p5831
aVhighway
p5832
aVprimary
p5833
aVloc_ref
p5834
aV100 E
p5835
aVsidewalk
p5836
aVright
p5837
asbag1
(g2
g3
Ntp5838
Rp5839
(dp5840
g7
(lp5841
L27446756L
aL4156112903L
aL262173260L
aL4156112914L
aL27446496L
asg9
(lp5842
I7
aI7
asg11
L385889739L
sg12
(lp5843
Vname
p5844
aVEast Washington Street
p5845
aVoneway
p5846
aVyes
p5847
aVbicycle
p5848
aVdesignated
p5849
aVhighway
p5850
aVprimary
p5851
aVloc_ref
p5852
aV100 N
p5853
aVcycleway
p5854
aVtrack
p5855
aVsidewalk
p5856
aVboth
p5857
asbag1
(g2
g3
Ntp5858
Rp5859
(dp5860
g7
(lp5861
L27446720L
aL706968769L
aL4156112922L
aL740243454L
aL2401831551L
aL2391003237L
aL4156112932L
aL28289299L
aL2892003846L
aL4156112927L
aL2391030896L
aL2391030898L
aL28289310L
aL28289318L
aL27477590L
asg9
(lp5862
I5
aI5
asg11
L4543073L
sg12
(lp5863
Vname
p5864
aVWest Madison Street
p5865
aVbusway
p5866
aVlane
p5867
aVoneway
p5868
aVyes
p5869
aVhighway
p5870
aVsecondary
p5871
aVloc_ref
p5872
aV0 N/S
p5873
aVcycleway
p5874
aVlane
p5875
asbag1
(g2
g3
Ntp5876
Rp5877
(dp5878
g7
(lp5879
L1388390343L
aL1388390285L
aL2396916040L
aL2396910969L
aL2390993549L
aL28289299L
aL4156112932L
aL2391003237L
aL1388390343L
asg9
(lp5880
I6
aI6
asg11
L231290343L
sg12
(lp5881
Varea
p5882
aVyes
p5883
aVhighway
p5884
aVpedestrian
p5885
asbag1
(g2
g3
Ntp5886
Rp5887
(dp5888
g7
(lp5889
L28290277L
aL3211798021L
aL2391030903L
aL2391027633L
aL740260072L
aL2391027639L
aL3211798020L
aL4156112934L
aL28289299L
asg9
(lp5890
I6
aI6
asg11
L315089479L
sg12
(lp5891
Vname
p5892
aVNorth Dearborn Street
p5893
aVbench
p5894
aVyes
p5895
aVoneway
p5896
aV-1
p5897
aVhighway
p5898
aVsecondary
p5899
aVloc_ref
p5900
aV50 W
p5901
aVshelter
p5902
aVno
p5903
aVoperator
p5904
aVChicago Transit Authority
p5905
asba.